
========================================================================

** ELF Header Information

    File Name: YH-RT1052.axf

    Machine class: ELFCLASS32 (32-bit)
    Data encoding: ELFDATA2LSB (Little endian)
    Header version: EV_CURRENT (Current version)
    Operating System ABI: none
    ABI Version: 0
    File Type: ET_EXEC (Executable) (2)
    Machine: EM_ARM (ARM)

    Image Entry point: 0x60002401
    Flags: EF_ARM_HASENTRY (0x05000002)

    ARM ELF revision: 5 (ABI version 2)

    Conforms to Base float procedure-call standard

    Built with
    Component: ARM Compiler 5.06 update 4 (build 422) Tool: armasm [4d35cf]
    Component: ARM Compiler 5.06 update 4 (build 422) Tool: armlink [4d35d2]

    Header size: 52 bytes (0x34)
    Program header entry size: 32 bytes (0x20)
    Section header entry size: 40 bytes (0x28)

    Program header entries: 3
    Section header entries: 21

    Program header offset: 3048836 (0x002e8584)
    Section header offset: 3048932 (0x002e85e4)

    Section header string table index: 20

========================================================================

** Program header #0 (PT_LOAD) [PF_R]
    Size : 512 bytes
    Virtual address: 0x60000000 (Alignment 4)


====================================

** Program header #1 (PT_LOAD) [PF_R]
    Size : 1120 bytes
    Virtual address: 0x60001000 (Alignment 4)


====================================

** Program header #2 (PT_LOAD) [PF_X + PF_W + PF_R + PF_ARM_ENTRY]
    Size : 14908 bytes (12824 bytes in file)
    Virtual address: 0x60002000 (Alignment 8)


========================================================================

** Section #1 'RW_m_config_text' (SHT_PROGBITS) [SHF_ALLOC]
    Size   : 512 bytes (alignment 4)
    Address: 0x60000000


** Section #2 'RW_m_ivt_text' (SHT_PROGBITS) [SHF_ALLOC]
    Size   : 1120 bytes (alignment 4)
    Address: 0x60001000


** Section #3 'VECTOR_ROM' (SHT_PROGBITS) [SHF_ALLOC]
    Size   : 1024 bytes (alignment 4)
    Address: 0x60002000


** Section #4 'ER_m_text' (SHT_PROGBITS) [SHF_ALLOC + SHF_EXECINSTR]
    Size   : 11752 bytes (alignment 8)
    Address: 0x60002400

    $t
    .ARM.Collect$$$$00000000
    .ARM.Collect$$$$00000003
    __main
    _main_stk
        0x60002400:    f8dfd00c    ....    LDR      sp,__lit__00000000 ; [0x60002410] = 0x20020000
    .ARM.Collect$$$$00000004
    _main_scatterload
        0x60002404:    f000fa2c    ..,.    BL       __scatterload ; 0x60002860
    .ARM.Collect$$$$00000008
    .ARM.Collect$$$$0000000A
    .ARM.Collect$$$$0000000B
    __main_after_scatterload
    _main_clock
    _main_cpp_init
    _main_init
        0x60002408:    4800        .H      LDR      r0,[pc,#0] ; [0x6000240c] = 0x60004cf9
        0x6000240a:    4700        .G      BX       r0
    $d
        0x6000240c:    60004cf9    .L.`    DCD    1610632441
    .ARM.Collect$$$$00002714
    __lit__00000000
    .ARM.Collect$$$$0000000D
    .ARM.Collect$$$$0000000F
    __rt_final_cpp
    __rt_final_exit
        0x60002410:    20020000    ...     DCD    537001984
    $t
    .text
    $v0
    Reset_Handler
        0x60002414:    b672        r.      CPSID    i
        0x60002416:    483a        :H      LDR      r0,[pc,#232] ; [0x60002500] = 0xe000ed08
        0x60002418:    493a        :I      LDR      r1,[pc,#232] ; [0x60002504] = 0x60002000
        0x6000241a:    6001        .`      STR      r1,[r0,#0]
        0x6000241c:    680a        .h      LDR      r2,[r1,#0]
        0x6000241e:    f3828808    ....    MSR      MSP,r2
        0x60002422:    4839        9H      LDR      r0,[pc,#228] ; [0x60002508] = 0x600040dd
        0x60002424:    4780        .G      BLX      r0
        0x60002426:    b662        b.      CPSIE    i
        0x60002428:    4838        8H      LDR      r0,[pc,#224] ; [0x6000250c] = 0x60002401
        0x6000242a:    4700        .G      BX       r0
    NMI_Handler
        0x6000242c:    e7fe        ..      B        NMI_Handler ; 0x6000242c
    HardFault_Handler
        0x6000242e:    e7fe        ..      B        HardFault_Handler ; 0x6000242e
    MemManage_Handler
        0x60002430:    e7fe        ..      B        MemManage_Handler ; 0x60002430
    BusFault_Handler
        0x60002432:    e7fe        ..      B        BusFault_Handler ; 0x60002432
    UsageFault_Handler
        0x60002434:    e7fe        ..      B        UsageFault_Handler ; 0x60002434
    SVC_Handler
        0x60002436:    e7fe        ..      B        SVC_Handler ; 0x60002436
    DebugMon_Handler
        0x60002438:    e7fe        ..      B        DebugMon_Handler ; 0x60002438
    PendSV_Handler
        0x6000243a:    e7fe        ..      B        PendSV_Handler ; 0x6000243a
    SysTick_Handler
        0x6000243c:    e7fe        ..      B        SysTick_Handler ; 0x6000243c
    DMA0_DMA16_IRQHandler
        0x6000243e:    4834        4H      LDR      r0,[pc,#208] ; [0x60002510] = 0x600024fb
        0x60002440:    4700        .G      BX       r0
    DMA1_DMA17_IRQHandler
        0x60002442:    4834        4H      LDR      r0,[pc,#208] ; [0x60002514] = 0x600024fb
        0x60002444:    4700        .G      BX       r0
    DMA2_DMA18_IRQHandler
        0x60002446:    4834        4H      LDR      r0,[pc,#208] ; [0x60002518] = 0x600024fb
        0x60002448:    4700        .G      BX       r0
    DMA3_DMA19_IRQHandler
        0x6000244a:    4834        4H      LDR      r0,[pc,#208] ; [0x6000251c] = 0x600024fb
        0x6000244c:    4700        .G      BX       r0
    DMA4_DMA20_IRQHandler
        0x6000244e:    4834        4H      LDR      r0,[pc,#208] ; [0x60002520] = 0x600024fb
        0x60002450:    4700        .G      BX       r0
    DMA5_DMA21_IRQHandler
        0x60002452:    4834        4H      LDR      r0,[pc,#208] ; [0x60002524] = 0x600024fb
        0x60002454:    4700        .G      BX       r0
    DMA6_DMA22_IRQHandler
        0x60002456:    4834        4H      LDR      r0,[pc,#208] ; [0x60002528] = 0x600024fb
        0x60002458:    4700        .G      BX       r0
    DMA7_DMA23_IRQHandler
        0x6000245a:    4834        4H      LDR      r0,[pc,#208] ; [0x6000252c] = 0x600024fb
        0x6000245c:    4700        .G      BX       r0
    DMA8_DMA24_IRQHandler
        0x6000245e:    4834        4H      LDR      r0,[pc,#208] ; [0x60002530] = 0x600024fb
        0x60002460:    4700        .G      BX       r0
    DMA9_DMA25_IRQHandler
        0x60002462:    4834        4H      LDR      r0,[pc,#208] ; [0x60002534] = 0x600024fb
        0x60002464:    4700        .G      BX       r0
    DMA10_DMA26_IRQHandler
        0x60002466:    4834        4H      LDR      r0,[pc,#208] ; [0x60002538] = 0x600024fb
        0x60002468:    4700        .G      BX       r0
    DMA11_DMA27_IRQHandler
        0x6000246a:    4834        4H      LDR      r0,[pc,#208] ; [0x6000253c] = 0x600024fb
        0x6000246c:    4700        .G      BX       r0
    DMA12_DMA28_IRQHandler
        0x6000246e:    4834        4H      LDR      r0,[pc,#208] ; [0x60002540] = 0x600024fb
        0x60002470:    4700        .G      BX       r0
    DMA13_DMA29_IRQHandler
        0x60002472:    4834        4H      LDR      r0,[pc,#208] ; [0x60002544] = 0x600024fb
        0x60002474:    4700        .G      BX       r0
    DMA14_DMA30_IRQHandler
        0x60002476:    4834        4H      LDR      r0,[pc,#208] ; [0x60002548] = 0x600024fb
        0x60002478:    4700        .G      BX       r0
    DMA15_DMA31_IRQHandler
        0x6000247a:    4834        4H      LDR      r0,[pc,#208] ; [0x6000254c] = 0x600024fb
        0x6000247c:    4700        .G      BX       r0
    DMA_ERROR_IRQHandler
        0x6000247e:    4834        4H      LDR      r0,[pc,#208] ; [0x60002550] = 0x600024fb
        0x60002480:    4700        .G      BX       r0
    LPUART1_IRQHandler
        0x60002482:    4834        4H      LDR      r0,[pc,#208] ; [0x60002554] = 0x60003821
        0x60002484:    4700        .G      BX       r0
    LPUART2_IRQHandler
        0x60002486:    4834        4H      LDR      r0,[pc,#208] ; [0x60002558] = 0x60003839
        0x60002488:    4700        .G      BX       r0
    LPUART3_IRQHandler
        0x6000248a:    4834        4H      LDR      r0,[pc,#208] ; [0x6000255c] = 0x60003851
        0x6000248c:    4700        .G      BX       r0
    LPUART4_IRQHandler
        0x6000248e:    4834        4H      LDR      r0,[pc,#208] ; [0x60002560] = 0x60003869
        0x60002490:    4700        .G      BX       r0
    LPUART5_IRQHandler
        0x60002492:    4834        4H      LDR      r0,[pc,#208] ; [0x60002564] = 0x60003881
        0x60002494:    4700        .G      BX       r0
    LPUART6_IRQHandler
        0x60002496:    4834        4H      LDR      r0,[pc,#208] ; [0x60002568] = 0x60003899
        0x60002498:    4700        .G      BX       r0
    LPUART7_IRQHandler
        0x6000249a:    4834        4H      LDR      r0,[pc,#208] ; [0x6000256c] = 0x600038b1
        0x6000249c:    4700        .G      BX       r0
    LPUART8_IRQHandler
        0x6000249e:    4834        4H      LDR      r0,[pc,#208] ; [0x60002570] = 0x600038c9
        0x600024a0:    4700        .G      BX       r0
    LPI2C1_IRQHandler
        0x600024a2:    4834        4H      LDR      r0,[pc,#208] ; [0x60002574] = 0x600024fb
        0x600024a4:    4700        .G      BX       r0
    LPI2C2_IRQHandler
        0x600024a6:    4834        4H      LDR      r0,[pc,#208] ; [0x60002578] = 0x600024fb
        0x600024a8:    4700        .G      BX       r0
    LPI2C3_IRQHandler
        0x600024aa:    4834        4H      LDR      r0,[pc,#208] ; [0x6000257c] = 0x600024fb
        0x600024ac:    4700        .G      BX       r0
    LPI2C4_IRQHandler
        0x600024ae:    4834        4H      LDR      r0,[pc,#208] ; [0x60002580] = 0x600024fb
        0x600024b0:    4700        .G      BX       r0
    LPSPI1_IRQHandler
        0x600024b2:    4834        4H      LDR      r0,[pc,#208] ; [0x60002584] = 0x600024fb
        0x600024b4:    4700        .G      BX       r0
    LPSPI2_IRQHandler
        0x600024b6:    4834        4H      LDR      r0,[pc,#208] ; [0x60002588] = 0x600024fb
        0x600024b8:    4700        .G      BX       r0
    LPSPI3_IRQHandler
        0x600024ba:    4834        4H      LDR      r0,[pc,#208] ; [0x6000258c] = 0x600024fb
        0x600024bc:    4700        .G      BX       r0
    LPSPI4_IRQHandler
        0x600024be:    4834        4H      LDR      r0,[pc,#208] ; [0x60002590] = 0x600024fb
        0x600024c0:    4700        .G      BX       r0
    CAN1_IRQHandler
        0x600024c2:    4834        4H      LDR      r0,[pc,#208] ; [0x60002594] = 0x600024fb
        0x600024c4:    4700        .G      BX       r0
    CAN2_IRQHandler
        0x600024c6:    4834        4H      LDR      r0,[pc,#208] ; [0x60002598] = 0x600024fb
        0x600024c8:    4700        .G      BX       r0
    SAI1_IRQHandler
        0x600024ca:    4834        4H      LDR      r0,[pc,#208] ; [0x6000259c] = 0x600024fb
        0x600024cc:    4700        .G      BX       r0
    SAI2_IRQHandler
        0x600024ce:    4834        4H      LDR      r0,[pc,#208] ; [0x600025a0] = 0x600024fb
        0x600024d0:    4700        .G      BX       r0
    SAI3_RX_IRQHandler
        0x600024d2:    4834        4H      LDR      r0,[pc,#208] ; [0x600025a4] = 0x600024fb
        0x600024d4:    4700        .G      BX       r0
    SAI3_TX_IRQHandler
        0x600024d6:    4834        4H      LDR      r0,[pc,#208] ; [0x600025a8] = 0x600024fb
        0x600024d8:    4700        .G      BX       r0
    SPDIF_IRQHandler
        0x600024da:    4834        4H      LDR      r0,[pc,#208] ; [0x600025ac] = 0x600024fb
        0x600024dc:    4700        .G      BX       r0
    FLEXIO1_IRQHandler
        0x600024de:    4834        4H      LDR      r0,[pc,#208] ; [0x600025b0] = 0x600024fb
        0x600024e0:    4700        .G      BX       r0
    FLEXIO2_IRQHandler
        0x600024e2:    4834        4H      LDR      r0,[pc,#208] ; [0x600025b4] = 0x600024fb
        0x600024e4:    4700        .G      BX       r0
    FLEXSPI_IRQHandler
        0x600024e6:    4834        4H      LDR      r0,[pc,#208] ; [0x600025b8] = 0x600024fb
        0x600024e8:    4700        .G      BX       r0
    USDHC1_IRQHandler
        0x600024ea:    4834        4H      LDR      r0,[pc,#208] ; [0x600025bc] = 0x600024fb
        0x600024ec:    4700        .G      BX       r0
    USDHC2_IRQHandler
        0x600024ee:    4834        4H      LDR      r0,[pc,#208] ; [0x600025c0] = 0x600024fb
        0x600024f0:    4700        .G      BX       r0
    ENET_IRQHandler
        0x600024f2:    4834        4H      LDR      r0,[pc,#208] ; [0x600025c4] = 0x600024fb
        0x600024f4:    4700        .G      BX       r0
    ENET_1588_Timer_IRQHandler
        0x600024f6:    4834        4H      LDR      r0,[pc,#208] ; [0x600025c8] = 0x600024fb
        0x600024f8:    4700        .G      BX       r0
    ACMP1_IRQHandler
    ACMP2_IRQHandler
    ACMP3_IRQHandler
    ACMP4_IRQHandler
    ADC1_IRQHandler
    ADC2_IRQHandler
    ADC_ETC_ERROR_IRQ_IRQHandler
    ADC_ETC_IRQ0_IRQHandler
    ADC_ETC_IRQ1_IRQHandler
    ADC_ETC_IRQ2_IRQHandler
    ANATOP_EVENT0_IRQHandler
    ANATOP_EVENT1_IRQHandler
    ANATOP_TAMP_LOW_HIGH_IRQHandler
    ANATOP_TEMP_PANIC_IRQHandler
    BEE_IRQHandler
    CAN1_DriverIRQHandler
    CAN2_DriverIRQHandler
    CCM_1_IRQHandler
    CCM_2_IRQHandler
    CORE_IRQHandler
    CSI_IRQHandler
    CSU_IRQHandler
    CTI0_ERROR_IRQHandler
    CTI1_ERROR_IRQHandler
    DCDC_IRQHandler
    DCP_IRQHandler
    DCP_VMI_IRQHandler
    DMA0_DMA16_DriverIRQHandler
    DMA10_DMA26_DriverIRQHandler
    DMA11_DMA27_DriverIRQHandler
    DMA12_DMA28_DriverIRQHandler
    DMA13_DMA29_DriverIRQHandler
    DMA14_DMA30_DriverIRQHandler
    DMA15_DMA31_DriverIRQHandler
    DMA1_DMA17_DriverIRQHandler
    DMA2_DMA18_DriverIRQHandler
    DMA3_DMA19_DriverIRQHandler
    DMA4_DMA20_DriverIRQHandler
    DMA5_DMA21_DriverIRQHandler
    DMA6_DMA22_DriverIRQHandler
    DMA7_DMA23_DriverIRQHandler
    DMA8_DMA24_DriverIRQHandler
    DMA9_DMA25_DriverIRQHandler
    DMA_ERROR_DriverIRQHandler
    DefaultISR
    ENC1_IRQHandler
    ENC2_IRQHandler
    ENC3_IRQHandler
    ENC4_IRQHandler
    ENET_1588_Timer_DriverIRQHandler
    ENET_DriverIRQHandler
    EWM_IRQHandler
    FLEXIO1_DriverIRQHandler
    FLEXIO2_DriverIRQHandler
    FLEXRAM_IRQHandler
    FLEXSPI_DriverIRQHandler
    GPC_IRQHandler
    GPIO1_Combined_0_15_IRQHandler
    GPIO1_Combined_16_31_IRQHandler
    GPIO1_INT0_IRQHandler
    GPIO1_INT1_IRQHandler
    GPIO1_INT2_IRQHandler
    GPIO1_INT3_IRQHandler
    GPIO1_INT4_IRQHandler
    GPIO1_INT5_IRQHandler
    GPIO1_INT6_IRQHandler
    GPIO1_INT7_IRQHandler
    GPIO2_Combined_0_15_IRQHandler
    GPIO2_Combined_16_31_IRQHandler
    GPIO3_Combined_0_15_IRQHandler
    GPIO3_Combined_16_31_IRQHandler
    GPIO4_Combined_0_15_IRQHandler
    GPIO4_Combined_16_31_IRQHandler
    GPIO5_Combined_0_15_IRQHandler
    GPIO5_Combined_16_31_IRQHandler
    GPR_IRQ_IRQHandler
    GPT1_IRQHandler
    GPT2_IRQHandler
    KPP_IRQHandler
    LCDIF_IRQHandler
    LPI2C1_DriverIRQHandler
    LPI2C2_DriverIRQHandler
    LPI2C3_DriverIRQHandler
    LPI2C4_DriverIRQHandler
    LPSPI1_DriverIRQHandler
    LPSPI2_DriverIRQHandler
    LPSPI3_DriverIRQHandler
    LPSPI4_DriverIRQHandler
    NMI_WAKEUP_IRQHandler
    PIT_IRQHandler
    PWM1_0_IRQHandler
    PWM1_1_IRQHandler
    PWM1_2_IRQHandler
    PWM1_3_IRQHandler
    PWM1_FAULT_IRQHandler
    PWM2_0_IRQHandler
    PWM2_1_IRQHandler
    PWM2_2_IRQHandler
    PWM2_3_IRQHandler
    PWM2_FAULT_IRQHandler
    PWM3_0_IRQHandler
    PWM3_1_IRQHandler
    PWM3_2_IRQHandler
    PWM3_3_IRQHandler
    PWM3_FAULT_IRQHandler
    PWM4_0_IRQHandler
    PWM4_1_IRQHandler
    PWM4_2_IRQHandler
    PWM4_3_IRQHandler
    PWM4_FAULT_IRQHandler
    PXP_IRQHandler
    RTWDOG_IRQHandler
    Reserved115_IRQHandler
    Reserved123_IRQHandler
    Reserved143_IRQHandler
    Reserved144_IRQHandler
    Reserved168_IRQHandler
    Reserved169_IRQHandler
    Reserved170_IRQHandler
    Reserved171_IRQHandler
    Reserved172_IRQHandler
    Reserved173_IRQHandler
    Reserved68_IRQHandler
    Reserved86_IRQHandler
    Reserved87_IRQHandler
    SAI1_DriverIRQHandler
    SAI2_DriverIRQHandler
    SAI3_RX_DriverIRQHandler
    SAI3_TX_DriverIRQHandler
    SEMC_IRQHandler
    SJC_ARM_DEBUG_IRQHandler
    SJC_IRQHandler
    SNVS_HP_WRAPPER_IRQHandler
    SNVS_HP_WRAPPER_TZ_IRQHandler
    SNVS_LP_WRAPPER_IRQHandler
    SPDIF_DriverIRQHandler
    SRC_IRQHandler
    TMR1_IRQHandler
    TMR2_IRQHandler
    TMR3_IRQHandler
    TMR4_IRQHandler
    TRNG_IRQHandler
    TSC_DIG_IRQHandler
    USB_OTG1_IRQHandler
    USB_OTG2_IRQHandler
    USB_PHY1_IRQHandler
    USB_PHY2_IRQHandler
    USDHC1_DriverIRQHandler
    USDHC2_DriverIRQHandler
    WDOG1_IRQHandler
    WDOG2_IRQHandler
    XBAR1_IRQ_0_1_IRQHandler
    XBAR1_IRQ_2_3_IRQHandler
        0x600024fa:    4834        4H      LDR      r0,[pc,#208] ; [0x600025cc] = 0x600024fb
        0x600024fc:    4700        .G      BX       r0
    $d
        0x600024fe:    0000        ..      DCW    0
        0x60002500:    e000ed08    ....    DCD    3758157064
        0x60002504:    60002000    . .`    DCD    1610620928
        0x60002508:    600040dd    .@.`    DCD    1610629341
        0x6000250c:    60002401    .$.`    DCD    1610621953
        0x60002510:    600024fb    .$.`    DCD    1610622203
        0x60002514:    600024fb    .$.`    DCD    1610622203
        0x60002518:    600024fb    .$.`    DCD    1610622203
        0x6000251c:    600024fb    .$.`    DCD    1610622203
        0x60002520:    600024fb    .$.`    DCD    1610622203
        0x60002524:    600024fb    .$.`    DCD    1610622203
        0x60002528:    600024fb    .$.`    DCD    1610622203
        0x6000252c:    600024fb    .$.`    DCD    1610622203
        0x60002530:    600024fb    .$.`    DCD    1610622203
        0x60002534:    600024fb    .$.`    DCD    1610622203
        0x60002538:    600024fb    .$.`    DCD    1610622203
        0x6000253c:    600024fb    .$.`    DCD    1610622203
        0x60002540:    600024fb    .$.`    DCD    1610622203
        0x60002544:    600024fb    .$.`    DCD    1610622203
        0x60002548:    600024fb    .$.`    DCD    1610622203
        0x6000254c:    600024fb    .$.`    DCD    1610622203
        0x60002550:    600024fb    .$.`    DCD    1610622203
        0x60002554:    60003821    !8.`    DCD    1610627105
        0x60002558:    60003839    98.`    DCD    1610627129
        0x6000255c:    60003851    Q8.`    DCD    1610627153
        0x60002560:    60003869    i8.`    DCD    1610627177
        0x60002564:    60003881    .8.`    DCD    1610627201
        0x60002568:    60003899    .8.`    DCD    1610627225
        0x6000256c:    600038b1    .8.`    DCD    1610627249
        0x60002570:    600038c9    .8.`    DCD    1610627273
        0x60002574:    600024fb    .$.`    DCD    1610622203
        0x60002578:    600024fb    .$.`    DCD    1610622203
        0x6000257c:    600024fb    .$.`    DCD    1610622203
        0x60002580:    600024fb    .$.`    DCD    1610622203
        0x60002584:    600024fb    .$.`    DCD    1610622203
        0x60002588:    600024fb    .$.`    DCD    1610622203
        0x6000258c:    600024fb    .$.`    DCD    1610622203
        0x60002590:    600024fb    .$.`    DCD    1610622203
        0x60002594:    600024fb    .$.`    DCD    1610622203
        0x60002598:    600024fb    .$.`    DCD    1610622203
        0x6000259c:    600024fb    .$.`    DCD    1610622203
        0x600025a0:    600024fb    .$.`    DCD    1610622203
        0x600025a4:    600024fb    .$.`    DCD    1610622203
        0x600025a8:    600024fb    .$.`    DCD    1610622203
        0x600025ac:    600024fb    .$.`    DCD    1610622203
        0x600025b0:    600024fb    .$.`    DCD    1610622203
        0x600025b4:    600024fb    .$.`    DCD    1610622203
        0x600025b8:    600024fb    .$.`    DCD    1610622203
        0x600025bc:    600024fb    .$.`    DCD    1610622203
        0x600025c0:    600024fb    .$.`    DCD    1610622203
        0x600025c4:    600024fb    .$.`    DCD    1610622203
        0x600025c8:    600024fb    .$.`    DCD    1610622203
        0x600025cc:    600024fb    .$.`    DCD    1610622203
    $t
    .text
    __aeabi_uldivmod
        0x600025d0:    e92d5ff0    -.._    PUSH     {r4-r12,lr}
        0x600025d4:    4605        .F      MOV      r5,r0
        0x600025d6:    2000        .       MOVS     r0,#0
        0x600025d8:    4692        .F      MOV      r10,r2
        0x600025da:    469b        .F      MOV      r11,r3
        0x600025dc:    4688        .F      MOV      r8,r1
        0x600025de:    4606        .F      MOV      r6,r0
        0x600025e0:    4681        .F      MOV      r9,r0
        0x600025e2:    2440        @$      MOVS     r4,#0x40
        0x600025e4:    e01b        ..      B        0x6000261e ; __aeabi_uldivmod + 78
        0x600025e6:    4628        (F      MOV      r0,r5
        0x600025e8:    4641        AF      MOV      r1,r8
        0x600025ea:    4647        GF      MOV      r7,r8
        0x600025ec:    4622        "F      MOV      r2,r4
        0x600025ee:    f000f8b2    ....    BL       __aeabi_llsr ; 0x60002756
        0x600025f2:    4653        SF      MOV      r3,r10
        0x600025f4:    465a        ZF      MOV      r2,r11
        0x600025f6:    1ac0        ..      SUBS     r0,r0,r3
        0x600025f8:    4191        .A      SBCS     r1,r1,r2
        0x600025fa:    d310        ..      BCC      0x6000261e ; __aeabi_uldivmod + 78
        0x600025fc:    4611        .F      MOV      r1,r2
        0x600025fe:    4618        .F      MOV      r0,r3
        0x60002600:    4622        "F      MOV      r2,r4
        0x60002602:    f000f899    ....    BL       __aeabi_llsl ; 0x60002738
        0x60002606:    1a2d        -.      SUBS     r5,r5,r0
        0x60002608:    eb670801    g...    SBC      r8,r7,r1
        0x6000260c:    464f        OF      MOV      r7,r9
        0x6000260e:    4622        "F      MOV      r2,r4
        0x60002610:    2001        .       MOVS     r0,#1
        0x60002612:    2100        .!      MOVS     r1,#0
        0x60002614:    f000f890    ....    BL       __aeabi_llsl ; 0x60002738
        0x60002618:    eb170900    ....    ADDS     r9,r7,r0
        0x6000261c:    414e        NA      ADCS     r6,r6,r1
        0x6000261e:    1e20         .      SUBS     r0,r4,#0
        0x60002620:    f1a40401    ....    SUB      r4,r4,#1
        0x60002624:    dcdf        ..      BGT      0x600025e6 ; __aeabi_uldivmod + 22
        0x60002626:    4648        HF      MOV      r0,r9
        0x60002628:    4631        1F      MOV      r1,r6
        0x6000262a:    462a        *F      MOV      r2,r5
        0x6000262c:    4643        CF      MOV      r3,r8
        0x6000262e:    e8bd9ff0    ....    POP      {r4-r12,pc}
    .text
    __aeabi_ldivmod
        0x60002632:    e92d41f0    -..A    PUSH     {r4-r8,lr}
        0x60002636:    2400        .$      MOVS     r4,#0
        0x60002638:    1b06        ..      SUBS     r6,r0,r4
        0x6000263a:    4625        %F      MOV      r5,r4
        0x6000263c:    f1710600    q...    SBCS     r6,r1,#0
        0x60002640:    da05        ..      BGE      0x6000264e ; __aeabi_ldivmod + 28
        0x60002642:    2401        .$      MOVS     r4,#1
        0x60002644:    2700        .'      MOVS     r7,#0
        0x60002646:    ebd00007    ....    RSBS     r0,r0,r7
        0x6000264a:    eb670101    g...    SBC      r1,r7,r1
        0x6000264e:    1e16        ..      SUBS     r6,r2,#0
        0x60002650:    f1730600    s...    SBCS     r6,r3,#0
        0x60002654:    da05        ..      BGE      0x60002662 ; __aeabi_ldivmod + 48
        0x60002656:    2700        .'      MOVS     r7,#0
        0x60002658:    ebd20207    ....    RSBS     r2,r2,r7
        0x6000265c:    2501        .%      MOVS     r5,#1
        0x6000265e:    eb670303    g...    SBC      r3,r7,r3
        0x60002662:    f7ffffb5    ....    BL       __aeabi_uldivmod ; 0x600025d0
        0x60002666:    4686        .F      MOV      lr,r0
        0x60002668:    460e        .F      MOV      r6,r1
        0x6000266a:    4617        .F      MOV      r7,r2
        0x6000266c:    469c        .F      MOV      r12,r3
        0x6000266e:    42ac        .B      CMP      r4,r5
        0x60002670:    d004        ..      BEQ      0x6000267c ; __aeabi_ldivmod + 74
        0x60002672:    2500        .%      MOVS     r5,#0
        0x60002674:    ebd00e05    ....    RSBS     lr,r0,r5
        0x60002678:    eb650601    e...    SBC      r6,r5,r1
        0x6000267c:    b124        $.      CBZ      r4,0x60002688 ; __aeabi_ldivmod + 86
        0x6000267e:    2000        .       MOVS     r0,#0
        0x60002680:    ebd20700    ....    RSBS     r7,r2,r0
        0x60002684:    eb600c03    `...    SBC      r12,r0,r3
        0x60002688:    4670        pF      MOV      r0,lr
        0x6000268a:    4631        1F      MOV      r1,r6
        0x6000268c:    463a        :F      MOV      r2,r7
        0x6000268e:    4663        cF      MOV      r3,r12
        0x60002690:    e8bd81f0    ....    POP      {r4-r8,pc}
    .text
    __aeabi_memset
    __aeabi_memset4
    __aeabi_memset8
        0x60002694:    b2d2        ..      UXTB     r2,r2
        0x60002696:    e001        ..      B        0x6000269c ; __aeabi_memset + 8
        0x60002698:    f8002b01    ...+    STRB     r2,[r0],#1
        0x6000269c:    1e49        I.      SUBS     r1,r1,#1
        0x6000269e:    d2fb        ..      BCS      0x60002698 ; __aeabi_memset + 4
        0x600026a0:    4770        pG      BX       lr
    __aeabi_memclr
    __aeabi_memclr4
    __aeabi_memclr8
        0x600026a2:    2200        ."      MOVS     r2,#0
        0x600026a4:    e7f6        ..      B        __aeabi_memset ; 0x60002694
    _memset$wrapper
        0x600026a6:    b510        ..      PUSH     {r4,lr}
        0x600026a8:    4613        .F      MOV      r3,r2
        0x600026aa:    460a        .F      MOV      r2,r1
        0x600026ac:    4604        .F      MOV      r4,r0
        0x600026ae:    4619        .F      MOV      r1,r3
        0x600026b0:    f7fffff0    ....    BL       __aeabi_memset ; 0x60002694
        0x600026b4:    4620         F      MOV      r0,r4
        0x600026b6:    bd10        ..      POP      {r4,pc}
    .text
    strlen
        0x600026b8:    1c42        B.      ADDS     r2,r0,#1
        0x600026ba:    f8101b01    ....    LDRB     r1,[r0],#1
        0x600026be:    2900        .)      CMP      r1,#0
        0x600026c0:    d1fb        ..      BNE      0x600026ba ; strlen + 2
        0x600026c2:    1a80        ..      SUBS     r0,r0,r2
        0x600026c4:    4770        pG      BX       lr
    .text
    __aeabi_l2d
        0x600026c6:    b53e        >.      PUSH     {r1-r5,lr}
        0x600026c8:    17ca        ..      ASRS     r2,r1,#31
        0x600026ca:    0fcb        ..      LSRS     r3,r1,#31
        0x600026cc:    2400        .$      MOVS     r4,#0
        0x600026ce:    4050        P@      EORS     r0,r0,r2
        0x600026d0:    4051        Q@      EORS     r1,r1,r2
        0x600026d2:    18c0        ..      ADDS     r0,r0,r3
        0x600026d4:    4161        aA      ADCS     r1,r1,r4
        0x600026d6:    07da        ..      LSLS     r2,r3,#31
        0x600026d8:    f2404333    @.3C    MOV      r3,#0x433
        0x600026dc:    9400        ..      STR      r4,[sp,#0]
        0x600026de:    e9cd2301    ...#    STRD     r2,r3,[sp,#4]
        0x600026e2:    4622        "F      MOV      r2,r4
        0x600026e4:    4623        #F      MOV      r3,r4
        0x600026e6:    f000f855    ..U.    BL       _double_epilogue ; 0x60002794
        0x600026ea:    b003        ..      ADD      sp,sp,#0xc
        0x600026ec:    bd30        0.      POP      {r4,r5,pc}
    .text
    __aeabi_d2lz
        0x600026ee:    b570        p.      PUSH     {r4-r6,lr}
        0x600026f0:    f3c1520a    ...R    UBFX     r2,r1,#20,#11
        0x600026f4:    f0014500    ...E    AND      r5,r1,#0x80000000
        0x600026f8:    2400        .$      MOVS     r4,#0
        0x600026fa:    f3c10113    ....    UBFX     r1,r1,#0,#20
        0x600026fe:    f24033ff    @..3    MOV      r3,#0x3ff
        0x60002702:    f4411180    A...    ORR      r1,r1,#0x100000
        0x60002706:    429a        .B      CMP      r2,r3
        0x60002708:    da02        ..      BGE      0x60002710 ; __aeabi_d2lz + 34
        0x6000270a:    2000        .       MOVS     r0,#0
        0x6000270c:    4601        .F      MOV      r1,r0
        0x6000270e:    bd70        p.      POP      {r4-r6,pc}
        0x60002710:    f2404333    @.3C    MOV      r3,#0x433
        0x60002714:    429a        .B      CMP      r2,r3
        0x60002716:    f2a24233    ..3B    SUB      r2,r2,#0x433
        0x6000271a:    dc03        ..      BGT      0x60002724 ; __aeabi_d2lz + 54
        0x6000271c:    4252        RB      RSBS     r2,r2,#0
        0x6000271e:    f000f81a    ....    BL       __aeabi_llsr ; 0x60002756
        0x60002722:    e001        ..      B        0x60002728 ; __aeabi_d2lz + 58
        0x60002724:    f000f808    ....    BL       __aeabi_llsl ; 0x60002738
        0x60002728:    432c        ,C      ORRS     r4,r4,r5
        0x6000272a:    d0f0        ..      BEQ      0x6000270e ; __aeabi_d2lz + 32
        0x6000272c:    2300        .#      MOVS     r3,#0
        0x6000272e:    ebd00003    ....    RSBS     r0,r0,r3
        0x60002732:    eb630101    c...    SBC      r1,r3,r1
        0x60002736:    bd70        p.      POP      {r4-r6,pc}
    .text
    __aeabi_llsl
    _ll_shift_l
        0x60002738:    2a20         *      CMP      r2,#0x20
        0x6000273a:    db04        ..      BLT      0x60002746 ; __aeabi_llsl + 14
        0x6000273c:    3a20         :      SUBS     r2,r2,#0x20
        0x6000273e:    fa00f102    ....    LSL      r1,r0,r2
        0x60002742:    2000        .       MOVS     r0,#0
        0x60002744:    4770        pG      BX       lr
        0x60002746:    4091        .@      LSLS     r1,r1,r2
        0x60002748:    f1c20320    .. .    RSB      r3,r2,#0x20
        0x6000274c:    fa20f303     ...    LSR      r3,r0,r3
        0x60002750:    4319        .C      ORRS     r1,r1,r3
        0x60002752:    4090        .@      LSLS     r0,r0,r2
        0x60002754:    4770        pG      BX       lr
    .text
    __aeabi_llsr
    _ll_ushift_r
        0x60002756:    2a20         *      CMP      r2,#0x20
        0x60002758:    db04        ..      BLT      0x60002764 ; __aeabi_llsr + 14
        0x6000275a:    3a20         :      SUBS     r2,r2,#0x20
        0x6000275c:    fa21f002    !...    LSR      r0,r1,r2
        0x60002760:    2100        .!      MOVS     r1,#0
        0x60002762:    4770        pG      BX       lr
        0x60002764:    fa21f302    !...    LSR      r3,r1,r2
        0x60002768:    40d0        .@      LSRS     r0,r0,r2
        0x6000276a:    f1c20220    .. .    RSB      r2,r2,#0x20
        0x6000276e:    4091        .@      LSLS     r1,r1,r2
        0x60002770:    4308        .C      ORRS     r0,r0,r1
        0x60002772:    4619        .F      MOV      r1,r3
        0x60002774:    4770        pG      BX       lr
    .text
    .text
    __I$use$fp
    _double_round
        0x60002776:    b510        ..      PUSH     {r4,lr}
        0x60002778:    1e14        ..      SUBS     r4,r2,#0
        0x6000277a:    f1730400    s...    SBCS     r4,r3,#0
        0x6000277e:    da08        ..      BGE      0x60002792 ; __I$use$fp + 28
        0x60002780:    1c40        @.      ADDS     r0,r0,#1
        0x60002782:    f1410100    A...    ADC      r1,r1,#0
        0x60002786:    1892        ..      ADDS     r2,r2,r2
        0x60002788:    415b        [A      ADCS     r3,r3,r3
        0x6000278a:    431a        .C      ORRS     r2,r2,r3
        0x6000278c:    d101        ..      BNE      0x60002792 ; __I$use$fp + 28
        0x6000278e:    f0200001     ...    BIC      r0,r0,#1
        0x60002792:    bd10        ..      POP      {r4,pc}
    _double_epilogue
        0x60002794:    e92d4df0    -..M    PUSH     {r4-r8,r10,r11,lr}
        0x60002798:    4692        .F      MOV      r10,r2
        0x6000279a:    469b        .F      MOV      r11,r3
        0x6000279c:    b111        ..      CBZ      r1,0x600027a4 ; _double_epilogue + 16
        0x6000279e:    fab1f281    ....    CLZ      r2,r1
        0x600027a2:    e002        ..      B        0x600027aa ; _double_epilogue + 22
        0x600027a4:    fab0f280    ....    CLZ      r2,r0
        0x600027a8:    3220         2      ADDS     r2,r2,#0x20
        0x600027aa:    4690        .F      MOV      r8,r2
        0x600027ac:    f7ffffc4    ....    BL       __aeabi_llsl ; 0x60002738
        0x600027b0:    4604        .F      MOV      r4,r0
        0x600027b2:    460f        .F      MOV      r7,r1
        0x600027b4:    ea40000a    @...    ORR      r0,r0,r10
        0x600027b8:    ea41010b    A...    ORR      r1,r1,r11
        0x600027bc:    4653        SF      MOV      r3,r10
        0x600027be:    465a        ZF      MOV      r2,r11
        0x600027c0:    4308        .C      ORRS     r0,r0,r1
        0x600027c2:    d013        ..      BEQ      0x600027ec ; _double_epilogue + 88
        0x600027c4:    4611        .F      MOV      r1,r2
        0x600027c6:    ea530001    S...    ORRS     r0,r3,r1
        0x600027ca:    d019        ..      BEQ      0x60002800 ; _double_epilogue + 108
        0x600027cc:    f1c80240    ..@.    RSB      r2,r8,#0x40
        0x600027d0:    4650        PF      MOV      r0,r10
        0x600027d2:    f7ffffc0    ....    BL       __aeabi_llsr ; 0x60002756
        0x600027d6:    4605        .F      MOV      r5,r0
        0x600027d8:    460e        .F      MOV      r6,r1
        0x600027da:    4650        PF      MOV      r0,r10
        0x600027dc:    4659        YF      MOV      r1,r11
        0x600027de:    4642        BF      MOV      r2,r8
        0x600027e0:    f7ffffaa    ....    BL       __aeabi_llsl ; 0x60002738
        0x600027e4:    4308        .C      ORRS     r0,r0,r1
        0x600027e6:    d005        ..      BEQ      0x600027f4 ; _double_epilogue + 96
        0x600027e8:    2001        .       MOVS     r0,#1
        0x600027ea:    e004        ..      B        0x600027f6 ; _double_epilogue + 98
        0x600027ec:    4620         F      MOV      r0,r4
        0x600027ee:    4639        9F      MOV      r1,r7
        0x600027f0:    e8bd8df0    ....    POP      {r4-r8,r10,r11,pc}
        0x600027f4:    2000        .       MOVS     r0,#0
        0x600027f6:    4305        .C      ORRS     r5,r5,r0
        0x600027f8:    ea4676e0    F..v    ORR      r6,r6,r0,ASR #31
        0x600027fc:    432c        ,C      ORRS     r4,r4,r5
        0x600027fe:    4337        7C      ORRS     r7,r7,r6
        0x60002800:    980a        ..      LDR      r0,[sp,#0x28]
        0x60002802:    0563        c.      LSLS     r3,r4,#21
        0x60002804:    0ae4        ..      LSRS     r4,r4,#11
        0x60002806:    eba00008    ....    SUB      r0,r0,r8
        0x6000280a:    2200        ."      MOVS     r2,#0
        0x6000280c:    0afd        ..      LSRS     r5,r7,#11
        0x6000280e:    ea445447    D.GT    ORR      r4,r4,r7,LSL #21
        0x60002812:    300a        .0      ADDS     r0,r0,#0xa
        0x60002814:    d502        ..      BPL      0x6000281c ; _double_epilogue + 136
        0x60002816:    2000        .       MOVS     r0,#0
        0x60002818:    4601        .F      MOV      r1,r0
        0x6000281a:    e7e9        ..      B        0x600027f0 ; _double_epilogue + 92
        0x6000281c:    0501        ..      LSLS     r1,r0,#20
        0x6000281e:    1910        ..      ADDS     r0,r2,r4
        0x60002820:    4169        iA      ADCS     r1,r1,r5
        0x60002822:    e9dd4508    ...E    LDRD     r4,r5,[sp,#0x20]
        0x60002826:    1900        ..      ADDS     r0,r0,r4
        0x60002828:    4169        iA      ADCS     r1,r1,r5
        0x6000282a:    e8bd4df0    ...M    POP      {r4-r8,r10,r11,lr}
        0x6000282e:    e7a2        ..      B        __I$use$fp ; 0x60002776
    .text
    __ARM_scalbn
    scalbn
        0x60002830:    b570        p.      PUSH     {r4-r6,lr}
        0x60002832:    f0214300    !..C    BIC      r3,r1,#0x80000000
        0x60002836:    4303        .C      ORRS     r3,r3,r0
        0x60002838:    d00c        ..      BEQ      0x60002854 ; __ARM_scalbn + 36
        0x6000283a:    f3c1550a    ...U    UBFX     r5,r1,#20,#11
        0x6000283e:    2400        .$      MOVS     r4,#0
        0x60002840:    ebd50504    ....    RSBS     r5,r5,r4
        0x60002844:    eb640304    d...    SBC      r3,r4,r4
        0x60002848:    17d6        ..      ASRS     r6,r2,#31
        0x6000284a:    1aad        ..      SUBS     r5,r5,r2
        0x6000284c:    41b3        .A      SBCS     r3,r3,r6
        0x6000284e:    db02        ..      BLT      0x60002856 ; __ARM_scalbn + 38
        0x60002850:    2000        .       MOVS     r0,#0
        0x60002852:    4601        .F      MOV      r1,r0
        0x60002854:    bd70        p.      POP      {r4-r6,pc}
        0x60002856:    1820         .      ADDS     r0,r4,r0
        0x60002858:    eb415102    A..Q    ADC      r1,r1,r2,LSL #20
        0x6000285c:    bd70        p.      POP      {r4-r6,pc}
        0x6000285e:    0000        ..      MOVS     r0,r0
    .text
    __scatterload
    __scatterload_rt2
        0x60002860:    4c06        .L      LDR      r4,[pc,#24] ; [0x6000287c] = 0x600051c8
        0x60002862:    4d07        .M      LDR      r5,[pc,#28] ; [0x60002880] = 0x600051e8
        0x60002864:    e006        ..      B        0x60002874 ; __scatterload + 20
        0x60002866:    68e0        .h      LDR      r0,[r4,#0xc]
        0x60002868:    f0400301    @...    ORR      r3,r0,#1
        0x6000286c:    e8940007    ....    LDM      r4,{r0-r2}
        0x60002870:    4798        .G      BLX      r3
        0x60002872:    3410        .4      ADDS     r4,r4,#0x10
        0x60002874:    42ac        .B      CMP      r4,r5
        0x60002876:    d3f6        ..      BCC      0x60002866 ; __scatterload + 6
        0x60002878:    f7fffdc6    ....    BL       __main_after_scatterload ; 0x60002408
    $d
        0x6000287c:    600051c8    .Q.`    DCD    1610633672
        0x60002880:    600051e8    .Q.`    DCD    1610633704
    $t
    i.BOARD_BootClockRUN
    BOARD_BootClockRUN
        0x60002884:    4990        .I      LDR      r1,[pc,#576] ; [0x60002ac8] = 0x20000008
        0x60002886:    f44f4000    O..@    MOV      r0,#0x8000
        0x6000288a:    b570        p.      PUSH     {r4-r6,lr}
        0x6000288c:    4d91        .M      LDR      r5,[pc,#580] ; [0x60002ad4] = 0x80006c18
        0x6000288e:    6008        .`      STR      r0,[r1,#0]
        0x60002890:    498f        .I      LDR      r1,[pc,#572] ; [0x60002ad0] = 0x20000004
        0x60002892:    488e        .H      LDR      r0,[pc,#568] ; [0x60002acc] = 0x16e3600
        0x60002894:    6008        .`      STR      r0,[r1,#0]
        0x60002896:    2101        .!      MOVS     r1,#1
        0x60002898:    4628        (F      MOV      r0,r5
        0x6000289a:    f000fced    ....    BL       CLOCK_SetMux ; 0x60003278
        0x6000289e:    4e8e        .N      LDR      r6,[pc,#568] ; [0x60002ad8] = 0x14003914
        0x600028a0:    2101        .!      MOVS     r1,#1
        0x600028a2:    4630        0F      MOV      r0,r6
        0x600028a4:    f000fce8    ....    BL       CLOCK_SetMux ; 0x60003278
        0x600028a8:    488c        .H      LDR      r0,[pc,#560] ; [0x60002adc] = 0x40080000
        0x600028aa:    68c1        .h      LDR      r1,[r0,#0xc]
        0x600028ac:    f021011f    !...    BIC      r1,r1,#0x1f
        0x600028b0:    f0410112    A...    ORR      r1,r1,#0x12
        0x600028b4:    60c1        .`      STR      r1,[r0,#0xc]
        0x600028b6:    6801        .h      LDR      r1,[r0,#0]
        0x600028b8:    2900        .)      CMP      r1,#0
        0x600028ba:    dafc        ..      BGE      0x600028b6 ; BOARD_BootClockRUN + 50
        0x600028bc:    4888        .H      LDR      r0,[pc,#544] ; [0x60002ae0] = 0x60005128
        0x600028be:    f000fc99    ....    BL       CLOCK_InitArmPll ; 0x600031f4
        0x600028c2:    4887        .H      LDR      r0,[pc,#540] ; [0x60002ae0] = 0x60005128
        0x600028c4:    1d00        ..      ADDS     r0,r0,#4
        0x600028c6:    f000fca3    ....    BL       CLOCK_InitSysPll ; 0x60003210
        0x600028ca:    4c86        .L      LDR      r4,[pc,#536] ; [0x60002ae4] = 0x400d8000
        0x600028cc:    6f20         o      LDR      r0,[r4,#0x70]
        0x600028ce:    f4405000    @..P    ORR      r0,r0,#0x2000
        0x600028d2:    6720         g      STR      r0,[r4,#0x70]
        0x600028d4:    f8d400a0    ....    LDR      r0,[r4,#0xa0]
        0x600028d8:    f4405000    @..P    ORR      r0,r0,#0x2000
        0x600028dc:    f8c400a0    ....    STR      r0,[r4,#0xa0]
        0x600028e0:    f8d400e0    ....    LDR      r0,[r4,#0xe0]
        0x600028e4:    f4405000    @..P    ORR      r0,r0,#0x2000
        0x600028e8:    f8c400e0    ....    STR      r0,[r4,#0xe0]
        0x600028ec:    f8d400e0    ....    LDR      r0,[r4,#0xe0]
        0x600028f0:    f4401000    @...    ORR      r0,r0,#0x200000
        0x600028f4:    f8c400e0    ....    STR      r0,[r4,#0xe0]
        0x600028f8:    2100        .!      MOVS     r1,#0
        0x600028fa:    4628        (F      MOV      r0,r5
        0x600028fc:    3470        p4      ADDS     r4,r4,#0x70
        0x600028fe:    f000fcbb    ....    BL       CLOCK_SetMux ; 0x60003278
        0x60002902:    4879        yH      LDR      r0,[pc,#484] ; [0x60002ae8] = 0x8000fb14
        0x60002904:    2100        .!      MOVS     r1,#0
        0x60002906:    f000fc91    ....    BL       CLOCK_SetDiv ; 0x6000322c
        0x6000290a:    2100        .!      MOVS     r1,#0
        0x6000290c:    4630        0F      MOV      r0,r6
        0x6000290e:    f000fcb3    ....    BL       CLOCK_SetMux ; 0x60003278
        0x60002912:    4876        vH      LDR      r0,[pc,#472] ; [0x60002aec] = 0x400ea14
        0x60002914:    2100        .!      MOVS     r1,#0
        0x60002916:    f000fc89    ....    BL       CLOCK_SetDiv ; 0x6000322c
        0x6000291a:    4875        uH      LDR      r0,[pc,#468] ; [0x60002af0] = 0x80006814
        0x6000291c:    2103        .!      MOVS     r1,#3
        0x6000291e:    f000fc85    ....    BL       CLOCK_SetDiv ; 0x6000322c
        0x60002922:    4874        tH      LDR      r0,[pc,#464] ; [0x60002af4] = 0x4000e010
        0x60002924:    2101        .!      MOVS     r1,#1
        0x60002926:    f000fc81    ....    BL       CLOCK_SetDiv ; 0x6000322c
        0x6000292a:    4873        sH      LDR      r0,[pc,#460] ; [0x60002af8] = 0x80007218
        0x6000292c:    2103        .!      MOVS     r1,#3
        0x6000292e:    f000fca3    ....    BL       CLOCK_SetMux ; 0x60003278
        0x60002932:    4872        rH      LDR      r0,[pc,#456] ; [0x60002afc] = 0x8007e01c
        0x60002934:    2101        .!      MOVS     r1,#1
        0x60002936:    f000fc79    ..y.    BL       CLOCK_SetDiv ; 0x6000322c
        0x6000293a:    4871        qH      LDR      r0,[pc,#452] ; [0x60002b00] = 0x8000261c
        0x6000293c:    2100        .!      MOVS     r1,#0
        0x6000293e:    f000fc9b    ....    BL       CLOCK_SetMux ; 0x60003278
        0x60002942:    4870        pH      LDR      r0,[pc,#448] ; [0x60002b04] = 0x8000301c
        0x60002944:    2100        .!      MOVS     r1,#0
        0x60002946:    f000fc97    ....    BL       CLOCK_SetMux ; 0x60003278
        0x6000294a:    486f        oH      LDR      r0,[pc,#444] ; [0x60002b08] = 0x8000eb24
        0x6000294c:    2101        .!      MOVS     r1,#1
        0x6000294e:    f000fc6d    ..m.    BL       CLOCK_SetDiv ; 0x6000322c
        0x60002952:    486e        nH      LDR      r0,[pc,#440] ; [0x60002b0c] = 0x8000311c
        0x60002954:    2100        .!      MOVS     r1,#0
        0x60002956:    f000fc8f    ....    BL       CLOCK_SetMux ; 0x60003278
        0x6000295a:    486d        mH      LDR      r0,[pc,#436] ; [0x60002b10] = 0x8000f024
        0x6000295c:    2101        .!      MOVS     r1,#1
        0x6000295e:    f000fc65    ..e.    BL       CLOCK_SetDiv ; 0x6000322c
        0x60002962:    4867        gH      LDR      r0,[pc,#412] ; [0x60002b00] = 0x8000261c
        0x60002964:    2100        .!      MOVS     r1,#0
        0x60002966:    30f8        .0      ADDS     r0,r0,#0xf8
        0x60002968:    f000fc86    ....    BL       CLOCK_SetMux ; 0x60003278
        0x6000296c:    4864        dH      LDR      r0,[pc,#400] ; [0x60002b00] = 0x8000261c
        0x6000296e:    2101        .!      MOVS     r1,#1
        0x60002970:    3808        .8      SUBS     r0,r0,#8
        0x60002972:    f000fc81    ....    BL       CLOCK_SetMux ; 0x60003278
        0x60002976:    2101        .!      MOVS     r1,#1
        0x60002978:    f24f0014    O...    MOV      r0,#0xf014
        0x6000297c:    f000fc56    ..V.    BL       CLOCK_SetDiv ; 0x6000322c
        0x60002980:    4864        dH      LDR      r0,[pc,#400] ; [0x60002b14] = 0x8000693c
        0x60002982:    2100        .!      MOVS     r1,#0
        0x60002984:    f000fc78    ..x.    BL       CLOCK_SetMux ; 0x60003278
        0x60002988:    485f        _H      LDR      r0,[pc,#380] ; [0x60002b08] = 0x8000eb24
        0x6000298a:    2101        .!      MOVS     r1,#1
        0x6000298c:    3018        .0      ADDS     r0,r0,#0x18
        0x6000298e:    f000fc4d    ..M.    BL       CLOCK_SetDiv ; 0x6000322c
        0x60002992:    4861        aH      LDR      r0,[pc,#388] ; [0x60002b18] = 0x80006418
        0x60002994:    2102        .!      MOVS     r1,#2
        0x60002996:    f000fc6f    ..o.    BL       CLOCK_SetMux ; 0x60003278
        0x6000299a:    4853        SH      LDR      r0,[pc,#332] ; [0x60002ae8] = 0x8000fb14
        0x6000299c:    2104        .!      MOVS     r1,#4
        0x6000299e:    38fc        .8      SUBS     r0,r0,#0xfc
        0x600029a0:    f000fc44    ..D.    BL       CLOCK_SetDiv ; 0x6000322c
        0x600029a4:    485d        ]H      LDR      r0,[pc,#372] ; [0x60002b1c] = 0x80006e18
        0x600029a6:    2102        .!      MOVS     r1,#2
        0x600029a8:    f000fc66    ..f.    BL       CLOCK_SetMux ; 0x60003278
        0x600029ac:    485c        \H      LDR      r0,[pc,#368] ; [0x60002b20] = 0x80007924
        0x600029ae:    2102        .!      MOVS     r1,#2
        0x600029b0:    f000fc3c    ..<.    BL       CLOCK_SetDiv ; 0x6000322c
        0x600029b4:    4857        WH      LDR      r0,[pc,#348] ; [0x60002b14] = 0x8000693c
        0x600029b6:    2100        .!      MOVS     r1,#0
        0x600029b8:    30e0        .0      ADDS     r0,r0,#0xe0
        0x600029ba:    f000fc5d    ..].    BL       CLOCK_SetMux ; 0x60003278
        0x600029be:    4859        YH      LDR      r0,[pc,#356] ; [0x60002b24] = 0x8000e628
        0x600029c0:    2103        .!      MOVS     r1,#3
        0x600029c2:    f000fc33    ..3.    BL       CLOCK_SetDiv ; 0x6000322c
        0x600029c6:    484d        MH      LDR      r0,[pc,#308] ; [0x60002afc] = 0x8007e01c
        0x600029c8:    2101        .!      MOVS     r1,#1
        0x600029ca:    300c        .0      ADDS     r0,r0,#0xc
        0x600029cc:    f000fc2e    ....    BL       CLOCK_SetDiv ; 0x6000322c
        0x600029d0:    4840        @H      LDR      r0,[pc,#256] ; [0x60002ad4] = 0x80006c18
        0x600029d2:    2100        .!      MOVS     r1,#0
        0x600029d4:    1d00        ..      ADDS     r0,r0,#4
        0x600029d6:    f000fc4f    ..O.    BL       CLOCK_SetMux ; 0x60003278
        0x600029da:    4852        RH      LDR      r0,[pc,#328] ; [0x60002b24] = 0x8000e628
        0x600029dc:    2103        .!      MOVS     r1,#3
        0x600029de:    1d00        ..      ADDS     r0,r0,#4
        0x600029e0:    f000fc24    ..$.    BL       CLOCK_SetDiv ; 0x6000322c
        0x600029e4:    4845        EH      LDR      r0,[pc,#276] ; [0x60002afc] = 0x8007e01c
        0x600029e6:    2101        .!      MOVS     r1,#1
        0x600029e8:    3010        .0      ADDS     r0,r0,#0x10
        0x600029ea:    f000fc1f    ....    BL       CLOCK_SetDiv ; 0x6000322c
        0x600029ee:    484b        KH      LDR      r0,[pc,#300] ; [0x60002b1c] = 0x80006e18
        0x600029f0:    2100        .!      MOVS     r1,#0
        0x600029f2:    1d00        ..      ADDS     r0,r0,#4
        0x600029f4:    f000fc40    ..@.    BL       CLOCK_SetMux ; 0x60003278
        0x600029f8:    484b        KH      LDR      r0,[pc,#300] ; [0x60002b28] = 0x8000f628
        0x600029fa:    2103        .!      MOVS     r1,#3
        0x600029fc:    f000fc16    ....    BL       CLOCK_SetDiv ; 0x6000322c
        0x60002a00:    484a        JH      LDR      r0,[pc,#296] ; [0x60002b2c] = 0x8007f028
        0x60002a02:    2101        .!      MOVS     r1,#1
        0x60002a04:    f000fc12    ....    BL       CLOCK_SetDiv ; 0x6000322c
        0x60002a08:    4849        IH      LDR      r0,[pc,#292] ; [0x60002b30] = 0x80003238
        0x60002a0a:    2100        .!      MOVS     r1,#0
        0x60002a0c:    f000fc34    ..4.    BL       CLOCK_SetMux ; 0x60003278
        0x60002a10:    4848        HH      LDR      r0,[pc,#288] ; [0x60002b34] = 0x8007f338
        0x60002a12:    2100        .!      MOVS     r1,#0
        0x60002a14:    f000fc0a    ....    BL       CLOCK_SetDiv ; 0x6000322c
        0x60002a18:    4835        5H      LDR      r0,[pc,#212] ; [0x60002af0] = 0x80006814
        0x60002a1a:    2102        .!      MOVS     r1,#2
        0x60002a1c:    300c        .0      ADDS     r0,r0,#0xc
        0x60002a1e:    f000fc2b    ..+.    BL       CLOCK_SetMux ; 0x60003278
        0x60002a22:    4845        EH      LDR      r0,[pc,#276] ; [0x60002b38] = 0x8007e220
        0x60002a24:    2101        .!      MOVS     r1,#1
        0x60002a26:    f000fc01    ....    BL       CLOCK_SetDiv ; 0x6000322c
        0x60002a2a:    4835        5H      LDR      r0,[pc,#212] ; [0x60002b00] = 0x8000261c
        0x60002a2c:    2100        .!      MOVS     r1,#0
        0x60002a2e:    3008        .0      ADDS     r0,r0,#8
        0x60002a30:    f000fc22    ..".    BL       CLOCK_SetMux ; 0x60003278
        0x60002a34:    4831        1H      LDR      r0,[pc,#196] ; [0x60002afc] = 0x8007e01c
        0x60002a36:    2100        .!      MOVS     r1,#0
        0x60002a38:    3008        .0      ADDS     r0,r0,#8
        0x60002a3a:    f000fbf7    ....    BL       CLOCK_SetDiv ; 0x6000322c
        0x60002a3e:    4834        4H      LDR      r0,[pc,#208] ; [0x60002b10] = 0x8000f024
        0x60002a40:    2105        .!      MOVS     r1,#5
        0x60002a42:    38ec        .8      SUBS     r0,r0,#0xec
        0x60002a44:    f000fc18    ....    BL       CLOCK_SetMux ; 0x60003278
        0x60002a48:    483c        <H      LDR      r0,[pc,#240] ; [0x60002b3c] = 0x8000ec38
        0x60002a4a:    2101        .!      MOVS     r1,#1
        0x60002a4c:    f000fbee    ....    BL       CLOCK_SetDiv ; 0x6000322c
        0x60002a50:    4835        5H      LDR      r0,[pc,#212] ; [0x60002b28] = 0x8000f628
        0x60002a52:    2103        .!      MOVS     r1,#3
        0x60002a54:    30f0        .0      ADDS     r0,r0,#0xf0
        0x60002a56:    f000fbe9    ....    BL       CLOCK_SetDiv ; 0x6000322c
        0x60002a5a:    4839        9H      LDR      r0,[pc,#228] ; [0x60002b40] = 0x80007430
        0x60002a5c:    2103        .!      MOVS     r1,#3
        0x60002a5e:    f000fc0b    ....    BL       CLOCK_SetMux ; 0x60003278
        0x60002a62:    4838        8H      LDR      r0,[pc,#224] ; [0x60002b44] = 0x8000f930
        0x60002a64:    2101        .!      MOVS     r1,#1
        0x60002a66:    f000fbe1    ....    BL       CLOCK_SetDiv ; 0x6000322c
        0x60002a6a:    482f        /H      LDR      r0,[pc,#188] ; [0x60002b28] = 0x8000f628
        0x60002a6c:    2107        .!      MOVS     r1,#7
        0x60002a6e:    3008        .0      ADDS     r0,r0,#8
        0x60002a70:    f000fbdc    ....    BL       CLOCK_SetDiv ; 0x6000322c
        0x60002a74:    481e        .H      LDR      r0,[pc,#120] ; [0x60002af0] = 0x80006814
        0x60002a76:    2103        .!      MOVS     r1,#3
        0x60002a78:    38e4        .8      SUBS     r0,r0,#0xe4
        0x60002a7a:    f000fbfd    ....    BL       CLOCK_SetMux ; 0x60003278
        0x60002a7e:    482f        /H      LDR      r0,[pc,#188] ; [0x60002b3c] = 0x8000ec38
        0x60002a80:    2101        .!      MOVS     r1,#1
        0x60002a82:    3808        .8      SUBS     r0,r0,#8
        0x60002a84:    f000fbd2    ....    BL       CLOCK_SetDiv ; 0x6000322c
        0x60002a88:    482f        /H      LDR      r0,[pc,#188] ; [0x60002b48] = 0x8000e930
        0x60002a8a:    2107        .!      MOVS     r1,#7
        0x60002a8c:    f000fbce    ....    BL       CLOCK_SetDiv ; 0x6000322c
        0x60002a90:    482e        .H      LDR      r0,[pc,#184] ; [0x60002b4c] = 0x80007320
        0x60002a92:    2103        .!      MOVS     r1,#3
        0x60002a94:    f000fbf0    ....    BL       CLOCK_SetMux ; 0x60003278
        0x60002a98:    482b        +H      LDR      r0,[pc,#172] ; [0x60002b48] = 0x8000e930
        0x60002a9a:    2101        .!      MOVS     r1,#1
        0x60002a9c:    3808        .8      SUBS     r0,r0,#8
        0x60002a9e:    f000fbc5    ....    BL       CLOCK_SetDiv ; 0x6000322c
        0x60002aa2:    4828        (H      LDR      r0,[pc,#160] ; [0x60002b44] = 0x8000f930
        0x60002aa4:    2107        .!      MOVS     r1,#7
        0x60002aa6:    3808        .8      SUBS     r0,r0,#8
        0x60002aa8:    f000fbc0    ....    BL       CLOCK_SetDiv ; 0x6000322c
        0x60002aac:    4828        (H      LDR      r0,[pc,#160] ; [0x60002b50] = 0x8000200c
        0x60002aae:    2100        .!      MOVS     r1,#0
        0x60002ab0:    f000fbe2    ....    BL       CLOCK_SetMux ; 0x60003278
        0x60002ab4:    4827        'H      LDR      r0,[pc,#156] ; [0x60002b54] = 0x23c34600
        0x60002ab6:    f8d410f0    ....    LDR      r1,[r4,#0xf0]
        0x60002aba:    f021011f    !...    BIC      r1,r1,#0x1f
        0x60002abe:    f8c410f0    ....    STR      r1,[r4,#0xf0]
        0x60002ac2:    4925        %I      LDR      r1,[pc,#148] ; [0x60002b58] = 0x20000000
        0x60002ac4:    6008        .`      STR      r0,[r1,#0]
        0x60002ac6:    bd70        p.      POP      {r4-r6,pc}
    $d
        0x60002ac8:    20000008    ...     DCD    536870920
        0x60002acc:    016e3600    .6n.    DCD    24000000
        0x60002ad0:    20000004    ...     DCD    536870916
        0x60002ad4:    80006c18    .l..    DCD    2147511320
        0x60002ad8:    14003914    .9..    DCD    335558932
        0x60002adc:    40080000    ...@    DCD    1074266112
        0x60002ae0:    60005128    (Q.`    DCD    1610633512
        0x60002ae4:    400d8000    ...@    DCD    1074626560
        0x60002ae8:    8000fb14    ....    DCD    2147547924
        0x60002aec:    0400ea14    ....    DCD    67168788
        0x60002af0:    80006814    .h..    DCD    2147510292
        0x60002af4:    4000e010    ...@    DCD    1073799184
        0x60002af8:    80007218    .r..    DCD    2147512856
        0x60002afc:    8007e01c    ....    DCD    2147999772
        0x60002b00:    8000261c    .&..    DCD    2147493404
        0x60002b04:    8000301c    .0..    DCD    2147495964
        0x60002b08:    8000eb24    $...    DCD    2147543844
        0x60002b0c:    8000311c    .1..    DCD    2147496220
        0x60002b10:    8000f024    $...    DCD    2147545124
        0x60002b14:    8000693c    <i..    DCD    2147510588
        0x60002b18:    80006418    .d..    DCD    2147509272
        0x60002b1c:    80006e18    .n..    DCD    2147511832
        0x60002b20:    80007924    $y..    DCD    2147514660
        0x60002b24:    8000e628    (...    DCD    2147542568
        0x60002b28:    8000f628    (...    DCD    2147546664
        0x60002b2c:    8007f028    (...    DCD    2148003880
        0x60002b30:    80003238    82..    DCD    2147496504
        0x60002b34:    8007f338    8...    DCD    2148004664
        0x60002b38:    8007e220     ...    DCD    2148000288
        0x60002b3c:    8000ec38    8...    DCD    2147544120
        0x60002b40:    80007430    0t..    DCD    2147513392
        0x60002b44:    8000f930    0...    DCD    2147547440
        0x60002b48:    8000e930    0...    DCD    2147543344
        0x60002b4c:    80007320     s..    DCD    2147513120
        0x60002b50:    8000200c    . ..    DCD    2147491852
        0x60002b54:    23c34600    .F.#    DCD    600000000
        0x60002b58:    20000000    ...     DCD    536870912
    $t
    i.BOARD_ConfigMPU
    BOARD_ConfigMPU
        0x60002b5c:    e92d4ff0    -..O    PUSH     {r4-r11,lr}
        0x60002b60:    4860        `H      LDR      r0,[pc,#384] ; [0x60002ce4] = 0xe000ed14
        0x60002b62:    f04f0900    O...    MOV      r9,#0
        0x60002b66:    6801        .h      LDR      r1,[r0,#0]
        0x60002b68:    0389        ..      LSLS     r1,r1,#14
        0x60002b6a:    d50e        ..      BPL      0x60002b8a ; BOARD_ConfigMPU + 46
        0x60002b6c:    f3bf8f4f    ..O.    DSB      
        0x60002b70:    f3bf8f6f    ..o.    ISB      
        0x60002b74:    6803        .h      LDR      r3,[r0,#0]
        0x60002b76:    4a5c        \J      LDR      r2,[pc,#368] ; [0x60002ce8] = 0xe000ef50
        0x60002b78:    f4233300    #..3    BIC      r3,r3,#0x20000
        0x60002b7c:    6003        .`      STR      r3,[r0,#0]
        0x60002b7e:    f8c29000    ....    STR      r9,[r2,#0]
        0x60002b82:    f3bf8f4f    ..O.    DSB      
        0x60002b86:    f3bf8f6f    ..o.    ISB      
        0x60002b8a:    f8dfb158    ..X.    LDR      r11,[pc,#344] ; [0x60002ce4] = 0xe000ed14
        0x60002b8e:    6801        .h      LDR      r1,[r0,#0]
        0x60002b90:    f10b0b70    ..p.    ADD      r11,r11,#0x70
        0x60002b94:    f1ab0e04    ....    SUB      lr,r11,#4
        0x60002b98:    f6437aff    C..z    MOV      r10,#0x3fff
        0x60002b9c:    03c9        ..      LSLS     r1,r1,#15
        0x60002b9e:    d520         .      BPL      0x60002be2 ; BOARD_ConfigMPU + 134
        0x60002ba0:    f8cb9000    ....    STR      r9,[r11,#0]
        0x60002ba4:    f3bf8f4f    ..O.    DSB      
        0x60002ba8:    6801        .h      LDR      r1,[r0,#0]
        0x60002baa:    f4213180    !..1    BIC      r1,r1,#0x10000
        0x60002bae:    6001        .`      STR      r1,[r0,#0]
        0x60002bb0:    f3bf8f4f    ..O.    DSB      
        0x60002bb4:    4d4c        LM      LDR      r5,[pc,#304] ; [0x60002ce8] = 0xe000ef50
        0x60002bb6:    f8de1000    ....    LDR      r1,[lr,#0]
        0x60002bba:    3524        $5      ADDS     r5,r5,#0x24
        0x60002bbc:    4654        TF      MOV      r4,r10
        0x60002bbe:    f3c1324e    ..N2    UBFX     r2,r1,#13,#15
        0x60002bc2:    f3c103c9    ....    UBFX     r3,r1,#3,#10
        0x60002bc6:    ea041642    ..B.    AND      r6,r4,r2,LSL #5
        0x60002bca:    4619        .F      MOV      r1,r3
        0x60002bcc:    ea467781    F..w    ORR      r7,r6,r1,LSL #30
        0x60002bd0:    602f        /`      STR      r7,[r5,#0]
        0x60002bd2:    1e49        I.      SUBS     r1,r1,#1
        0x60002bd4:    d2fa        ..      BCS      0x60002bcc ; BOARD_ConfigMPU + 112
        0x60002bd6:    1e52        R.      SUBS     r2,r2,#1
        0x60002bd8:    d2f5        ..      BCS      0x60002bc6 ; BOARD_ConfigMPU + 106
        0x60002bda:    f3bf8f4f    ..O.    DSB      
        0x60002bde:    f3bf8f6f    ..o.    ISB      
        0x60002be2:    f3bf8f4f    ..O.    DSB      
        0x60002be6:    f3bf8f6f    ..o.    ISB      
        0x60002bea:    4b3e        >K      LDR      r3,[pc,#248] ; [0x60002ce4] = 0xe000ed14
        0x60002bec:    f8dfc0f4    ....    LDR      r12,[pc,#244] ; [0x60002ce4] = 0xe000ed14
        0x60002bf0:    3310        .3      ADDS     r3,r3,#0x10
        0x60002bf2:    4f3e        >O      LDR      r7,[pc,#248] ; [0x60002cec] = 0xc0000010
        0x60002bf4:    f10c0c80    ....    ADD      r12,r12,#0x80
        0x60002bf8:    681a        .h      LDR      r2,[r3,#0]
        0x60002bfa:    493a        :I      LDR      r1,[pc,#232] ; [0x60002ce4] = 0xe000ed14
        0x60002bfc:    4d3c        <M      LDR      r5,[pc,#240] ; [0x60002cf0] = 0x310003b
        0x60002bfe:    f4223280    "..2    BIC      r2,r2,#0x10000
        0x60002c02:    4c3c        <L      LDR      r4,[pc,#240] ; [0x60002cf4] = 0x3030021
        0x60002c04:    3188        .1      ADDS     r1,r1,#0x88
        0x60002c06:    601a        .`      STR      r2,[r3,#0]
        0x60002c08:    f8dc2000    ...     LDR      r2,[r12,#0]
        0x60002c0c:    f0220601    "...    BIC      r6,r2,#1
        0x60002c10:    f8cc6000    ...`    STR      r6,[r12,#0]
        0x60002c14:    1d0a        ..      ADDS     r2,r1,#4
        0x60002c16:    600f        .`      STR      r7,[r1,#0]
        0x60002c18:    1eae        ..      SUBS     r6,r5,#2
        0x60002c1a:    4f37        7O      LDR      r7,[pc,#220] ; [0x60002cf8] = 0x80000011
        0x60002c1c:    6016        .`      STR      r6,[r2,#0]
        0x60002c1e:    4e37        7N      LDR      r6,[pc,#220] ; [0x60002cfc] = 0x60000012
        0x60002c20:    600f        .`      STR      r7,[r1,#0]
        0x60002c22:    4f34        4O      LDR      r7,[pc,#208] ; [0x60002cf4] = 0x3030021
        0x60002c24:    6015        .`      STR      r5,[r2,#0]
        0x60002c26:    3718        .7      ADDS     r7,r7,#0x18
        0x60002c28:    f04f0813    O...    MOV      r8,#0x13
        0x60002c2c:    600e        .`      STR      r6,[r1,#0]
        0x60002c2e:    6017        .`      STR      r7,[r2,#0]
        0x60002c30:    f8c18000    ....    STR      r8,[r1,#0]
        0x60002c34:    6015        .`      STR      r5,[r2,#0]
        0x60002c36:    2514        .%      MOVS     r5,#0x14
        0x60002c38:    600d        .`      STR      r5,[r1,#0]
        0x60002c3a:    4d31        1M      LDR      r5,[pc,#196] ; [0x60002d00] = 0x20000015
        0x60002c3c:    6014        .`      STR      r4,[r2,#0]
        0x60002c3e:    600d        .`      STR      r5,[r1,#0]
        0x60002c40:    4e30        0N      LDR      r6,[pc,#192] ; [0x60002d04] = 0x20200016
        0x60002c42:    6014        .`      STR      r4,[r2,#0]
        0x60002c44:    1ca4        ..      ADDS     r4,r4,#2
        0x60002c46:    4d2c        ,M      LDR      r5,[pc,#176] ; [0x60002cf8] = 0x80000011
        0x60002c48:    600e        .`      STR      r6,[r1,#0]
        0x60002c4a:    1dad        ..      ADDS     r5,r5,#6
        0x60002c4c:    4e29        )N      LDR      r6,[pc,#164] ; [0x60002cf4] = 0x3030021
        0x60002c4e:    4f2e        .O      LDR      r7,[pc,#184] ; [0x60002d08] = 0x81e00018
        0x60002c50:    3610        .6      ADDS     r6,r6,#0x10
        0x60002c52:    6014        .`      STR      r4,[r2,#0]
        0x60002c54:    4c2d        -L      LDR      r4,[pc,#180] ; [0x60002d0c] = 0x3080029
        0x60002c56:    600d        .`      STR      r5,[r1,#0]
        0x60002c58:    6016        .`      STR      r6,[r2,#0]
        0x60002c5a:    600f        .`      STR      r7,[r1,#0]
        0x60002c5c:    6014        .`      STR      r4,[r2,#0]
        0x60002c5e:    f3bf8f4f    ..O.    DSB      
        0x60002c62:    f3bf8f6f    ..o.    ISB      
        0x60002c66:    2105        .!      MOVS     r1,#5
        0x60002c68:    f8cc1000    ....    STR      r1,[r12,#0]
        0x60002c6c:    6819        .h      LDR      r1,[r3,#0]
        0x60002c6e:    f4413180    A..1    ORR      r1,r1,#0x10000
        0x60002c72:    6019        .`      STR      r1,[r3,#0]
        0x60002c74:    464c        LF      MOV      r4,r9
        0x60002c76:    f8cb9000    ....    STR      r9,[r11,#0]
        0x60002c7a:    f3bf8f4f    ..O.    DSB      
        0x60002c7e:    f8de1000    ....    LDR      r1,[lr,#0]
        0x60002c82:    4655        UF      MOV      r5,r10
        0x60002c84:    4e18        .N      LDR      r6,[pc,#96] ; [0x60002ce8] = 0xe000ef50
        0x60002c86:    3610        .6      ADDS     r6,r6,#0x10
        0x60002c88:    f3c1324e    ..N2    UBFX     r2,r1,#13,#15
        0x60002c8c:    f3c103c9    ....    UBFX     r3,r1,#3,#10
        0x60002c90:    ea051742    ..B.    AND      r7,r5,r2,LSL #5
        0x60002c94:    4619        .F      MOV      r1,r3
        0x60002c96:    bf00        ..      NOP      
        0x60002c98:    ea477c81    G..|    ORR      r12,r7,r1,LSL #30
        0x60002c9c:    f8c6c000    ....    STR      r12,[r6,#0]
        0x60002ca0:    1e49        I.      SUBS     r1,r1,#1
        0x60002ca2:    d2f9        ..      BCS      0x60002c98 ; BOARD_ConfigMPU + 316
        0x60002ca4:    1e52        R.      SUBS     r2,r2,#1
        0x60002ca6:    d2f3        ..      BCS      0x60002c90 ; BOARD_ConfigMPU + 308
        0x60002ca8:    f3bf8f4f    ..O.    DSB      
        0x60002cac:    6801        .h      LDR      r1,[r0,#0]
        0x60002cae:    f4413180    A..1    ORR      r1,r1,#0x10000
        0x60002cb2:    6001        .`      STR      r1,[r0,#0]
        0x60002cb4:    f3bf8f4f    ..O.    DSB      
        0x60002cb8:    f3bf8f6f    ..o.    ISB      
        0x60002cbc:    f3bf8f4f    ..O.    DSB      
        0x60002cc0:    f3bf8f6f    ..o.    ISB      
        0x60002cc4:    4908        .I      LDR      r1,[pc,#32] ; [0x60002ce8] = 0xe000ef50
        0x60002cc6:    600c        .`      STR      r4,[r1,#0]
        0x60002cc8:    f3bf8f4f    ..O.    DSB      
        0x60002ccc:    f3bf8f6f    ..o.    ISB      
        0x60002cd0:    6801        .h      LDR      r1,[r0,#0]
        0x60002cd2:    f4413100    A..1    ORR      r1,r1,#0x20000
        0x60002cd6:    6001        .`      STR      r1,[r0,#0]
        0x60002cd8:    f3bf8f4f    ..O.    DSB      
        0x60002cdc:    f3bf8f6f    ..o.    ISB      
        0x60002ce0:    e8bd8ff0    ....    POP      {r4-r11,pc}
    $d
        0x60002ce4:    e000ed14    ....    DCD    3758157076
        0x60002ce8:    e000ef50    P...    DCD    3758157648
        0x60002cec:    c0000010    ....    DCD    3221225488
        0x60002cf0:    0310003b    ;...    DCD    51380283
        0x60002cf4:    03030021    !...    DCD    50528289
        0x60002cf8:    80000011    ....    DCD    2147483665
        0x60002cfc:    60000012    ...`    DCD    1610612754
        0x60002d00:    20000015    ...     DCD    536870933
        0x60002d04:    20200016    ..      DCD    538968086
        0x60002d08:    81e00018    ....    DCD    2178940952
        0x60002d0c:    03080029    )...    DCD    50855977
    $t
    i.BOARD_DebugConsoleSrcFreq
    BOARD_DebugConsoleSrcFreq
        0x60002d10:    480f        .H      LDR      r0,[pc,#60] ; [0x60002d50] = 0x400fc024
        0x60002d12:    b570        p.      PUSH     {r4-r6,lr}
        0x60002d14:    2406        .$      MOVS     r4,#6
        0x60002d16:    6800        .h      LDR      r0,[r0,#0]
        0x60002d18:    4d0e        .M      LDR      r5,[pc,#56] ; [0x60002d54] = 0x8007e024
        0x60002d1a:    f0000040    ..@.    AND      r0,r0,#0x40
        0x60002d1e:    0980        ..      LSRS     r0,r0,#6
        0x60002d20:    d006        ..      BEQ      0x60002d30 ; BOARD_DebugConsoleSrcFreq + 32
        0x60002d22:    480d        .H      LDR      r0,[pc,#52] ; [0x60002d58] = 0x400d8000
        0x60002d24:    f8d00270    ..p.    LDR      r0,[r0,#0x270]
        0x60002d28:    06c0        ..      LSLS     r0,r0,#27
        0x60002d2a:    d507        ..      BPL      0x60002d3c ; BOARD_DebugConsoleSrcFreq + 44
        0x60002d2c:    4c0b        .L      LDR      r4,[pc,#44] ; [0x60002d5c] = 0x16e3600
        0x60002d2e:    e007        ..      B        0x60002d40 ; BOARD_DebugConsoleSrcFreq + 48
        0x60002d30:    480b        .H      LDR      r0,[pc,#44] ; [0x60002d60] = 0x10000d
        0x60002d32:    f000f943    ..C.    BL       CLOCK_GetPllFreq ; 0x60002fbc
        0x60002d36:    fbb0f4f4    ....    UDIV     r4,r0,r4
        0x60002d3a:    e001        ..      B        0x60002d40 ; BOARD_DebugConsoleSrcFreq + 48
        0x60002d3c:    4809        .H      LDR      r0,[pc,#36] ; [0x60002d64] = 0x20000004
        0x60002d3e:    6804        .h      LDR      r4,[r0,#0]
        0x60002d40:    4628        (F      MOV      r0,r5
        0x60002d42:    f000f85b    ..[.    BL       CLOCK_GetDiv ; 0x60002dfc
        0x60002d46:    1c40        @.      ADDS     r0,r0,#1
        0x60002d48:    fbb4f0f0    ....    UDIV     r0,r4,r0
        0x60002d4c:    bd70        p.      POP      {r4-r6,pc}
    $d
        0x60002d4e:    0000        ..      DCW    0
        0x60002d50:    400fc024    $..@    DCD    1074774052
        0x60002d54:    8007e024    $...    DCD    2147999780
        0x60002d58:    400d8000    ...@    DCD    1074626560
        0x60002d5c:    016e3600    .6n.    DCD    24000000
        0x60002d60:    0010000d    ....    DCD    1048589
        0x60002d64:    20000004    ...     DCD    536870916
    $t
    i.BOARD_InitDebugConsole
    BOARD_InitDebugConsole
        0x60002d68:    b510        ..      PUSH     {r4,lr}
        0x60002d6a:    f7ffffd1    ....    BL       BOARD_DebugConsoleSrcFreq ; 0x60002d10
        0x60002d6e:    e8bd4010    ...@    POP      {r4,lr}
        0x60002d72:    2202        ."      MOVS     r2,#2
        0x60002d74:    4603        .F      MOV      r3,r0
        0x60002d76:    4802        .H      LDR      r0,[pc,#8] ; [0x60002d80] = 0x40184000
        0x60002d78:    f44f31e1    O..1    MOV      r1,#0x1c200
        0x60002d7c:    f000bbb7    ....    B.W      DbgConsole_Init ; 0x600034ee
    $d
        0x60002d80:    40184000    .@.@    DCD    1075331072
    $t
    i.BOARD_InitPins
    BOARD_InitPins
        0x60002d84:    480f        .H      LDR      r0,[pc,#60] ; [0x60002dc4] = 0x400fc078
        0x60002d86:    b57c        |.      PUSH     {r2-r6,lr}
        0x60002d88:    6801        .h      LDR      r1,[r0,#0]
        0x60002d8a:    f041010c    A...    ORR      r1,r1,#0xc
        0x60002d8e:    6001        .`      STR      r1,[r0,#0]
        0x60002d90:    2600        .&      MOVS     r6,#0
        0x60002d92:    4c0d        .L      LDR      r4,[pc,#52] ; [0x60002dc8] = 0x401f82dc
        0x60002d94:    480d        .H      LDR      r0,[pc,#52] ; [0x60002dcc] = 0x401f80ec
        0x60002d96:    2102        .!      MOVS     r1,#2
        0x60002d98:    4633        3F      MOV      r3,r6
        0x60002d9a:    4632        2F      MOV      r2,r6
        0x60002d9c:    e9cd4600    ...F    STRD     r4,r6,[sp,#0]
        0x60002da0:    f000fc6c    ..l.    BL       IOMUXC_SetPinMux ; 0x6000367c
        0x60002da4:    4809        .H      LDR      r0,[pc,#36] ; [0x60002dcc] = 0x401f80ec
        0x60002da6:    1d25        %.      ADDS     r5,r4,#4
        0x60002da8:    2300        .#      MOVS     r3,#0
        0x60002daa:    2102        .!      MOVS     r1,#2
        0x60002dac:    461a        .F      MOV      r2,r3
        0x60002dae:    1d00        ..      ADDS     r0,r0,#4
        0x60002db0:    e9cd5600    ...V    STRD     r5,r6,[sp,#0]
        0x60002db4:    f000fc62    ..b.    BL       IOMUXC_SetPinMux ; 0x6000367c
        0x60002db8:    f24100b0    A...    MOV      r0,#0x10b0
        0x60002dbc:    6020         `      STR      r0,[r4,#0]
        0x60002dbe:    6028        (`      STR      r0,[r5,#0]
        0x60002dc0:    bd7c        |.      POP      {r2-r6,pc}
    $d
        0x60002dc2:    0000        ..      DCW    0
        0x60002dc4:    400fc078    x..@    DCD    1074774136
        0x60002dc8:    401f82dc    ...@    DCD    1075806940
        0x60002dcc:    401f80ec    ...@    DCD    1075806444
    $t
    i.CLOCK_ControlGate
    CLOCK_ControlGate
        0x60002dd0:    0a02        ..      LSRS     r2,r0,#8
        0x60002dd2:    2a06        .*      CMP      r2,#6
        0x60002dd4:    f000001f    ....    AND      r0,r0,#0x1f
        0x60002dd8:    b510        ..      PUSH     {r4,lr}
        0x60002dda:    d901        ..      BLS      0x60002de0 ; CLOCK_ControlGate + 16
        0x60002ddc:    f3af8000    ....    NOP.W    
        0x60002de0:    4b05        .K      LDR      r3,[pc,#20] ; [0x60002df8] = 0x400fc068
        0x60002de2:    2403        .$      MOVS     r4,#3
        0x60002de4:    4081        .@      LSLS     r1,r1,r0
        0x60002de6:    eb030282    ....    ADD      r2,r3,r2,LSL #2
        0x60002dea:    6813        .h      LDR      r3,[r2,#0]
        0x60002dec:    4084        .@      LSLS     r4,r4,r0
        0x60002dee:    43a3        .C      BICS     r3,r3,r4
        0x60002df0:    430b        .C      ORRS     r3,r3,r1
        0x60002df2:    6013        .`      STR      r3,[r2,#0]
        0x60002df4:    bd10        ..      POP      {r4,pc}
    $d
        0x60002df6:    0000        ..      DCW    0
        0x60002df8:    400fc068    h..@    DCD    1074774120
    $t
    i.CLOCK_GetDiv
    CLOCK_GetDiv
        0x60002dfc:    b510        ..      PUSH     {r4,lr}
        0x60002dfe:    4c05        .L      LDR      r4,[pc,#20] ; [0x60002e14] = 0x400fc000
        0x60002e00:    b2c3        ..      UXTB     r3,r0
        0x60002e02:    f3c0324c    ..L2    UBFX     r2,r0,#13,#13
        0x60002e06:    f3c02104    ...!    UBFX     r1,r0,#8,#5
        0x60002e0a:    5918        .Y      LDR      r0,[r3,r4]
        0x60002e0c:    408a        .@      LSLS     r2,r2,r1
        0x60002e0e:    4010        .@      ANDS     r0,r0,r2
        0x60002e10:    40c8        .@      LSRS     r0,r0,r1
        0x60002e12:    bd10        ..      POP      {r4,pc}
    $d
        0x60002e14:    400fc000    ...@    DCD    1074774016
    $t
    i.CLOCK_GetFreq
    CLOCK_GetFreq
        0x60002e18:    b510        ..      PUSH     {r4,lr}
        0x60002e1a:    4c36        6L      LDR      r4,[pc,#216] ; [0x60002ef4] = 0x400fc000
        0x60002e1c:    2816        .(      CMP      r0,#0x16
        0x60002e1e:    d266        f.      BCS      0x60002eee ; CLOCK_GetFreq + 214
        0x60002e20:    e8dff000    ....    TBB      [pc,r0]
    $d
        0x60002e24:    28110b0b    ...(    DCD    672205579
        0x60002e28:    3d3b3834    48;=    DCD    1027291188
        0x60002e2c:    4543413f    ?ACE    DCD    1162035519
        0x60002e30:    504e4c4a    JLNP    DCD    1347308618
        0x60002e34:    5b595452    RTY[    DCD    1532580946
        0x60002e38:    605e        ^`      DCW    24670
    $t
        0x60002e3a:    f000f879    ..y.    BL       CLOCK_GetPeriphClkFreq ; 0x60002f30
        0x60002e3e:    6961        ai      LDR      r1,[r4,#0x14]
        0x60002e40:    f3c12182    ...!    UBFX     r1,r1,#10,#3
        0x60002e44:    e012        ..      B        0x60002e6c ; CLOCK_GetFreq + 84
        0x60002e46:    6960        `i      LDR      r0,[r4,#0x14]
        0x60002e48:    0640        @.      LSLS     r0,r0,#25
        0x60002e4a:    d50a        ..      BPL      0x60002e62 ; CLOCK_GetFreq + 74
        0x60002e4c:    6960        `i      LDR      r0,[r4,#0x14]
        0x60002e4e:    0600        ..      LSLS     r0,r0,#24
        0x60002e50:    d503        ..      BPL      0x60002e5a ; CLOCK_GetFreq + 66
        0x60002e52:    2001        .       MOVS     r0,#1
        0x60002e54:    f000f9a2    ....    BL       CLOCK_GetUsb1PfdFreq ; 0x6000319c
        0x60002e58:    e005        ..      B        0x60002e66 ; CLOCK_GetFreq + 78
        0x60002e5a:    2002        .       MOVS     r0,#2
        0x60002e5c:    f000f972    ..r.    BL       CLOCK_GetSysPfdFreq ; 0x60003144
        0x60002e60:    e001        ..      B        0x60002e66 ; CLOCK_GetFreq + 78
        0x60002e62:    f000f865    ..e.    BL       CLOCK_GetPeriphClkFreq ; 0x60002f30
        0x60002e66:    6961        ai      LDR      r1,[r4,#0x14]
        0x60002e68:    f3c14102    ...A    UBFX     r1,r1,#16,#3
        0x60002e6c:    1c49        I.      ADDS     r1,r1,#1
        0x60002e6e:    fbb0f0f1    ....    UDIV     r0,r0,r1
        0x60002e72:    bd10        ..      POP      {r4,pc}
        0x60002e74:    f000f85c    ..\.    BL       CLOCK_GetPeriphClkFreq ; 0x60002f30
        0x60002e78:    6962        bi      LDR      r2,[r4,#0x14]
        0x60002e7a:    6961        ai      LDR      r1,[r4,#0x14]
        0x60002e7c:    f3c22282    ..."    UBFX     r2,r2,#10,#3
        0x60002e80:    1c52        R.      ADDS     r2,r2,#1
        0x60002e82:    fbb0f0f2    ....    UDIV     r0,r0,r2
        0x60002e86:    f3c12101    ...!    UBFX     r1,r1,#8,#2
        0x60002e8a:    e7ef        ..      B        0x60002e6c ; CLOCK_GetFreq + 84
        0x60002e8c:    e8bd4010    ...@    POP      {r4,lr}
        0x60002e90:    f000b83e    ..>.    B.W      CLOCK_GetOscFreq ; 0x60002f10
        0x60002e94:    f44f4000    O..@    MOV      r0,#0x8000
        0x60002e98:    bd10        ..      POP      {r4,pc}
        0x60002e9a:    200d        .       MOVS     r0,#0xd
        0x60002e9c:    e023        #.      B        0x60002ee6 ; CLOCK_GetFreq + 206
        0x60002e9e:    4816        .H      LDR      r0,[pc,#88] ; [0x60002ef8] = 0x10000d
        0x60002ea0:    e021        !.      B        0x60002ee6 ; CLOCK_GetFreq + 206
        0x60002ea2:    2000        .       MOVS     r0,#0
        0x60002ea4:    e004        ..      B        0x60002eb0 ; CLOCK_GetFreq + 152
        0x60002ea6:    2001        .       MOVS     r0,#1
        0x60002ea8:    e002        ..      B        0x60002eb0 ; CLOCK_GetFreq + 152
        0x60002eaa:    2002        .       MOVS     r0,#2
        0x60002eac:    e000        ..      B        0x60002eb0 ; CLOCK_GetFreq + 152
        0x60002eae:    2003        .       MOVS     r0,#3
        0x60002eb0:    e8bd4010    ...@    POP      {r4,lr}
        0x60002eb4:    f000b972    ..r.    B.W      CLOCK_GetUsb1PfdFreq ; 0x6000319c
        0x60002eb8:    4810        .H      LDR      r0,[pc,#64] ; [0x60002efc] = 0x20000d
        0x60002eba:    e014        ..      B        0x60002ee6 ; CLOCK_GetFreq + 206
        0x60002ebc:    4810        .H      LDR      r0,[pc,#64] ; [0x60002f00] = 0x30000d
        0x60002ebe:    e012        ..      B        0x60002ee6 ; CLOCK_GetFreq + 206
        0x60002ec0:    2000        .       MOVS     r0,#0
        0x60002ec2:    e004        ..      B        0x60002ece ; CLOCK_GetFreq + 182
        0x60002ec4:    2001        .       MOVS     r0,#1
        0x60002ec6:    e002        ..      B        0x60002ece ; CLOCK_GetFreq + 182
        0x60002ec8:    2002        .       MOVS     r0,#2
        0x60002eca:    e000        ..      B        0x60002ece ; CLOCK_GetFreq + 182
        0x60002ecc:    2003        .       MOVS     r0,#3
        0x60002ece:    e8bd4010    ...@    POP      {r4,lr}
        0x60002ed2:    f000b937    ..7.    B.W      CLOCK_GetSysPfdFreq ; 0x60003144
        0x60002ed6:    480b        .H      LDR      r0,[pc,#44] ; [0x60002f04] = 0xe0000d
        0x60002ed8:    e005        ..      B        0x60002ee6 ; CLOCK_GetFreq + 206
        0x60002eda:    480a        .H      LDR      r0,[pc,#40] ; [0x60002f04] = 0xe0000d
        0x60002edc:    3008        .0      ADDS     r0,r0,#8
        0x60002ede:    e002        ..      B        0x60002ee6 ; CLOCK_GetFreq + 206
        0x60002ee0:    4809        .H      LDR      r0,[pc,#36] ; [0x60002f08] = 0x70000d
        0x60002ee2:    e000        ..      B        0x60002ee6 ; CLOCK_GetFreq + 206
        0x60002ee4:    4809        .H      LDR      r0,[pc,#36] ; [0x60002f0c] = 0xa0000d
        0x60002ee6:    e8bd4010    ...@    POP      {r4,lr}
        0x60002eea:    f000b867    ..g.    B.W      CLOCK_GetPllFreq ; 0x60002fbc
        0x60002eee:    2000        .       MOVS     r0,#0
        0x60002ef0:    bd10        ..      POP      {r4,pc}
    $d
        0x60002ef2:    0000        ..      DCW    0
        0x60002ef4:    400fc000    ...@    DCD    1074774016
        0x60002ef8:    0010000d    ....    DCD    1048589
        0x60002efc:    0020000d    .. .    DCD    2097165
        0x60002f00:    0030000d    ..0.    DCD    3145741
        0x60002f04:    00e0000d    ....    DCD    14680077
        0x60002f08:    0070000d    ..p.    DCD    7340045
        0x60002f0c:    00a0000d    ....    DCD    10485773
    $t
    i.CLOCK_GetOscFreq
    CLOCK_GetOscFreq
        0x60002f10:    4804        .H      LDR      r0,[pc,#16] ; [0x60002f24] = 0x400d8000
        0x60002f12:    f8d00270    ..p.    LDR      r0,[r0,#0x270]
        0x60002f16:    06c0        ..      LSLS     r0,r0,#27
        0x60002f18:    d501        ..      BPL      0x60002f1e ; CLOCK_GetOscFreq + 14
        0x60002f1a:    4803        .H      LDR      r0,[pc,#12] ; [0x60002f28] = 0x16e3600
        0x60002f1c:    4770        pG      BX       lr
        0x60002f1e:    4803        .H      LDR      r0,[pc,#12] ; [0x60002f2c] = 0x20000004
        0x60002f20:    6800        .h      LDR      r0,[r0,#0]
        0x60002f22:    4770        pG      BX       lr
    $d
        0x60002f24:    400d8000    ...@    DCD    1074626560
        0x60002f28:    016e3600    .6n.    DCD    24000000
        0x60002f2c:    20000004    ...     DCD    536870916
    $t
    i.CLOCK_GetPeriphClkFreq
    CLOCK_GetPeriphClkFreq
        0x60002f30:    b510        ..      PUSH     {r4,lr}
        0x60002f32:    4c1f        .L      LDR      r4,[pc,#124] ; [0x60002fb0] = 0x400fc000
        0x60002f34:    481f        .H      LDR      r0,[pc,#124] ; [0x60002fb4] = 0x30000d
        0x60002f36:    6961        ai      LDR      r1,[r4,#0x14]
        0x60002f38:    0189        ..      LSLS     r1,r1,#6
        0x60002f3a:    69a1        .i      LDR      r1,[r4,#0x18]
        0x60002f3c:    d514        ..      BPL      0x60002f68 ; CLOCK_GetPeriphClkFreq + 56
        0x60002f3e:    f4115140    ..@Q    ANDS     r1,r1,#0x3000
        0x60002f42:    d00a        ..      BEQ      0x60002f5a ; CLOCK_GetPeriphClkFreq + 42
        0x60002f44:    f5b15f80    ..._    CMP      r1,#0x1000
        0x60002f48:    d00b        ..      BEQ      0x60002f62 ; CLOCK_GetPeriphClkFreq + 50
        0x60002f4a:    f5b15f00    ..._    CMP      r1,#0x2000
        0x60002f4e:    d005        ..      BEQ      0x60002f5c ; CLOCK_GetPeriphClkFreq + 44
        0x60002f50:    2000        .       MOVS     r0,#0
        0x60002f52:    6961        ai      LDR      r1,[r4,#0x14]
        0x60002f54:    f3c161c2    ...a    UBFX     r1,r1,#27,#3
        0x60002f58:    e025        %.      B        0x60002fa6 ; CLOCK_GetPeriphClkFreq + 118
        0x60002f5a:    4817        .H      LDR      r0,[pc,#92] ; [0x60002fb8] = 0x10000d
        0x60002f5c:    f000f82e    ....    BL       CLOCK_GetPllFreq ; 0x60002fbc
        0x60002f60:    e7f7        ..      B        0x60002f52 ; CLOCK_GetPeriphClkFreq + 34
        0x60002f62:    f7ffffd5    ....    BL       CLOCK_GetOscFreq ; 0x60002f10
        0x60002f66:    e7f4        ..      B        0x60002f52 ; CLOCK_GetPeriphClkFreq + 34
        0x60002f68:    f4112140    ..@!    ANDS     r1,r1,#0xc0000
        0x60002f6c:    d00a        ..      BEQ      0x60002f84 ; CLOCK_GetPeriphClkFreq + 84
        0x60002f6e:    f5b12f80    .../    CMP      r1,#0x40000
        0x60002f72:    d00b        ..      BEQ      0x60002f8c ; CLOCK_GetPeriphClkFreq + 92
        0x60002f74:    f5b12f00    .../    CMP      r1,#0x80000
        0x60002f78:    d00a        ..      BEQ      0x60002f90 ; CLOCK_GetPeriphClkFreq + 96
        0x60002f7a:    f5b12f40    ..@/    CMP      r1,#0xc0000
        0x60002f7e:    d00c        ..      BEQ      0x60002f9a ; CLOCK_GetPeriphClkFreq + 106
        0x60002f80:    2000        .       MOVS     r0,#0
        0x60002f82:    bd10        ..      POP      {r4,pc}
        0x60002f84:    e8bd4010    ...@    POP      {r4,lr}
        0x60002f88:    f000b818    ....    B.W      CLOCK_GetPllFreq ; 0x60002fbc
        0x60002f8c:    2002        .       MOVS     r0,#2
        0x60002f8e:    e000        ..      B        0x60002f92 ; CLOCK_GetPeriphClkFreq + 98
        0x60002f90:    2000        .       MOVS     r0,#0
        0x60002f92:    e8bd4010    ...@    POP      {r4,lr}
        0x60002f96:    f000b8d5    ....    B.W      CLOCK_GetSysPfdFreq ; 0x60003144
        0x60002f9a:    200d        .       MOVS     r0,#0xd
        0x60002f9c:    f000f80e    ....    BL       CLOCK_GetPllFreq ; 0x60002fbc
        0x60002fa0:    6921        !i      LDR      r1,[r4,#0x10]
        0x60002fa2:    f0010107    ....    AND      r1,r1,#7
        0x60002fa6:    1c49        I.      ADDS     r1,r1,#1
        0x60002fa8:    fbb0f0f1    ....    UDIV     r0,r0,r1
        0x60002fac:    bd10        ..      POP      {r4,pc}
    $d
        0x60002fae:    0000        ..      DCW    0
        0x60002fb0:    400fc000    ...@    DCD    1074774016
        0x60002fb4:    0030000d    ..0.    DCD    3145741
        0x60002fb8:    0010000d    ....    DCD    1048589
    $t
    i.CLOCK_GetPllFreq
    CLOCK_GetPllFreq
        0x60002fbc:    e92d41ff    -..A    PUSH     {r0-r8,lr}
        0x60002fc0:    4b5b        [K      LDR      r3,[pc,#364] ; [0x60003130] = 0x600050ac
        0x60002fc2:    4607        .F      MOV      r7,r0
        0x60002fc4:    4c5b        [L      LDR      r4,[pc,#364] ; [0x60003134] = 0x400d8000
        0x60002fc6:    f3c7460b    ...F    UBFX     r6,r7,#16,#12
        0x60002fca:    cb0f        ..      LDM      r3,{r0-r3}
        0x60002fcc:    e88d000f    ....    STM      sp,{r0-r3}
        0x60002fd0:    59a1        .Y      LDR      r1,[r4,r6]
        0x60002fd2:    2001        .       MOVS     r0,#1
        0x60002fd4:    f007021f    ....    AND      r2,r7,#0x1f
        0x60002fd8:    4090        .@      LSLS     r0,r0,r2
        0x60002fda:    4201        .B      TST      r1,r0
        0x60002fdc:    d02e        ..      BEQ      0x6000303c ; CLOCK_GetPllFreq + 128
        0x60002fde:    59a0        .Y      LDR      r0,[r4,r6]
        0x60002fe0:    f4104f40    ..@O    TST      r0,#0xc000
        0x60002fe4:    d009        ..      BEQ      0x60002ffa ; CLOCK_GetPllFreq + 62
        0x60002fe6:    2000        .       MOVS     r0,#0
        0x60002fe8:    4605        .F      MOV      r5,r0
        0x60002fea:    59a0        .Y      LDR      r0,[r4,r6]
        0x60002fec:    f3c04000    ...@    UBFX     r0,r0,#16,#1
        0x60002ff0:    b130        0.      CBZ      r0,0x60003000 ; CLOCK_GetPllFreq + 68
        0x60002ff2:    4628        (F      MOV      r0,r5
        0x60002ff4:    b004        ..      ADD      sp,sp,#0x10
        0x60002ff6:    e8bd81f0    ....    POP      {r4-r8,pc}
        0x60002ffa:    f7ffff89    ....    BL       CLOCK_GetOscFreq ; 0x60002f10
        0x60002ffe:    e7f3        ..      B        0x60002fe8 ; CLOCK_GetPllFreq + 44
        0x60003000:    494d        MI      LDR      r1,[pc,#308] ; [0x60003138] = 0x70000d
        0x60003002:    f44f2600    O..&    MOV      r6,#0x80000
        0x60003006:    1a78        x.      SUBS     r0,r7,r1
        0x60003008:    428f        .B      CMP      r7,r1
        0x6000300a:    d037        7.      BEQ      0x6000307c ; CLOCK_GetPllFreq + 192
        0x6000300c:    dc0c        ..      BGT      0x60003028 ; CLOCK_GetPllFreq + 108
        0x6000300e:    2f0d        ./      CMP      r7,#0xd
        0x60003010:    d016        ..      BEQ      0x60003040 ; CLOCK_GetPllFreq + 132
        0x60003012:    3f0d        .?      SUBS     r7,r7,#0xd
        0x60003014:    f5b71780    ....    SUBS     r7,r7,#0x100000
        0x60003018:    d029        ).      BEQ      0x6000306e ; CLOCK_GetPllFreq + 178
        0x6000301a:    f5b71f80    ....    CMP      r7,#0x100000
        0x6000301e:    d075        u.      BEQ      0x6000310c ; CLOCK_GetPllFreq + 336
        0x60003020:    f5b71f00    ....    CMP      r7,#0x200000
        0x60003024:    d10a        ..      BNE      0x6000303c ; CLOCK_GetPllFreq + 128
        0x60003026:    e010        ..      B        0x6000304a ; CLOCK_GetPllFreq + 142
        0x60003028:    f5b01f40    ..@.    CMP      r0,#0x300000
        0x6000302c:    d04b        K.      BEQ      0x600030c6 ; CLOCK_GetPllFreq + 266
        0x6000302e:    f5b00fe0    ....    CMP      r0,#0x700000
        0x60003032:    d070        p.      BEQ      0x60003116 ; CLOCK_GetPllFreq + 346
        0x60003034:    3808        .8      SUBS     r0,r0,#8
        0x60003036:    f5b00fe0    ....    CMP      r0,#0x700000
        0x6000303a:    d073        s.      BEQ      0x60003124 ; CLOCK_GetPllFreq + 360
        0x6000303c:    2000        .       MOVS     r0,#0
        0x6000303e:    e7d9        ..      B        0x60002ff4 ; CLOCK_GetPllFreq + 56
        0x60003040:    6820         h      LDR      r0,[r4,#0]
        0x60003042:    f000007f    ....    AND      r0,r0,#0x7f
        0x60003046:    4368        hC      MULS     r0,r5,r0
        0x60003048:    e03b        ;.      B        0x600030c2 ; CLOCK_GetPllFreq + 262
        0x6000304a:    6e22        "n      LDR      r2,[r4,#0x60]
        0x6000304c:    6d20         m      LDR      r0,[r4,#0x50]
        0x6000304e:    2300        .#      MOVS     r3,#0
        0x60003050:    fba50100    ....    UMULL    r0,r1,r5,r0
        0x60003054:    f7fffabc    ....    BL       __aeabi_uldivmod ; 0x600025d0
        0x60003058:    6b21        !k      LDR      r1,[r4,#0x30]
        0x6000305a:    07c9        ..      LSLS     r1,r1,#31
        0x6000305c:    d002        ..      BEQ      0x60003064 ; CLOCK_GetPllFreq + 168
        0x6000305e:    2116        .!      MOVS     r1,#0x16
        0x60003060:    434d        MC      MULS     r5,r1,r5
        0x60003062:    e002        ..      B        0x6000306a ; CLOCK_GetPllFreq + 174
        0x60003064:    eb050185    ....    ADD      r1,r5,r5,LSL #2
        0x60003068:    008d        ..      LSLS     r5,r1,#2
        0x6000306a:    4428        (D      ADD      r0,r0,r5
        0x6000306c:    e7c2        ..      B        0x60002ff4 ; CLOCK_GetPllFreq + 56
        0x6000306e:    6920         i      LDR      r0,[r4,#0x10]
        0x60003070:    e05b        [.      B        0x6000312a ; CLOCK_GetPllFreq + 366
        0x60003072:    2016        .       MOVS     r0,#0x16
        0x60003074:    e000        ..      B        0x60003078 ; CLOCK_GetPllFreq + 188
        0x60003076:    2014        .       MOVS     r0,#0x14
        0x60003078:    4368        hC      MULS     r0,r5,r0
        0x6000307a:    e7bb        ..      B        0x60002ff4 ; CLOCK_GetPllFreq + 56
        0x6000307c:    6f20         o      LDR      r0,[r4,#0x70]
        0x6000307e:    f8d42090    ...     LDR      r2,[r4,#0x90]
        0x60003082:    f000077f    ....    AND      r7,r0,#0x7f
        0x60003086:    f8d40080    ....    LDR      r0,[r4,#0x80]
        0x6000308a:    2300        .#      MOVS     r3,#0
        0x6000308c:    fba50100    ....    UMULL    r0,r1,r5,r0
        0x60003090:    f7fffa9e    ....    BL       __aeabi_uldivmod ; 0x600025d0
        0x60003094:    6f21        !o      LDR      r1,[r4,#0x70]
        0x60003096:    fb050007    ....    MLA      r0,r5,r7,r0
        0x6000309a:    f41111c0    ....    ANDS     r1,r1,#0x180000
        0x6000309e:    d00e        ..      BEQ      0x600030be ; CLOCK_GetPllFreq + 258
        0x600030a0:    42b1        .B      CMP      r1,r6
        0x600030a2:    d100        ..      BNE      0x600030a6 ; CLOCK_GetPllFreq + 234
        0x600030a4:    0840        @.      LSRS     r0,r0,#1
        0x600030a6:    4a25        %J      LDR      r2,[pc,#148] ; [0x6000313c] = 0x808000
        0x600030a8:    f8d41170    ..p.    LDR      r1,[r4,#0x170]
        0x600030ac:    4011        .@      ANDS     r1,r1,r2
        0x600030ae:    f5b14f00    ...O    CMP      r1,#0x8000
        0x600030b2:    d006        ..      BEQ      0x600030c2 ; CLOCK_GetPllFreq + 262
        0x600030b4:    4252        RB      RSBS     r2,r2,#0
        0x600030b6:    42d1        .B      CMN      r1,r2
        0x600030b8:    d19c        ..      BNE      0x60002ff4 ; CLOCK_GetPllFreq + 56
        0x600030ba:    0880        ..      LSRS     r0,r0,#2
        0x600030bc:    e79a        ..      B        0x60002ff4 ; CLOCK_GetPllFreq + 56
        0x600030be:    0880        ..      LSRS     r0,r0,#2
        0x600030c0:    e7f1        ..      B        0x600030a6 ; CLOCK_GetPllFreq + 234
        0x600030c2:    0840        @.      LSRS     r0,r0,#1
        0x600030c4:    e796        ..      B        0x60002ff4 ; CLOCK_GetPllFreq + 56
        0x600030c6:    f8d400a0    ....    LDR      r0,[r4,#0xa0]
        0x600030ca:    f8d420c0    ...     LDR      r2,[r4,#0xc0]
        0x600030ce:    f000077f    ....    AND      r7,r0,#0x7f
        0x600030d2:    f8d400b0    ....    LDR      r0,[r4,#0xb0]
        0x600030d6:    2300        .#      MOVS     r3,#0
        0x600030d8:    34a0        .4      ADDS     r4,r4,#0xa0
        0x600030da:    fba50100    ....    UMULL    r0,r1,r5,r0
        0x600030de:    f7fffa77    ..w.    BL       __aeabi_uldivmod ; 0x600025d0
        0x600030e2:    f85419a0    T...    LDR      r1,[r4],#-0xa0
        0x600030e6:    fb050007    ....    MLA      r0,r5,r7,r0
        0x600030ea:    f41111c0    ....    ANDS     r1,r1,#0x180000
        0x600030ee:    d010        ..      BEQ      0x60003112 ; CLOCK_GetPllFreq + 342
        0x600030f0:    42b1        .B      CMP      r1,r6
        0x600030f2:    d100        ..      BNE      0x600030f6 ; CLOCK_GetPllFreq + 314
        0x600030f4:    0840        @.      LSRS     r0,r0,#1
        0x600030f6:    f8d41170    ..p.    LDR      r1,[r4,#0x170]
        0x600030fa:    f0014140    ..@A    AND      r1,r1,#0xc0000000
        0x600030fe:    f1b14f40    ..@O    CMP      r1,#0xc0000000
        0x60003102:    d0da        ..      BEQ      0x600030ba ; CLOCK_GetPllFreq + 254
        0x60003104:    f1b14f80    ...O    CMP      r1,#0x40000000
        0x60003108:    d199        ..      BNE      0x6000303e ; CLOCK_GetPllFreq + 130
        0x6000310a:    e7da        ..      B        0x600030c2 ; CLOCK_GetPllFreq + 262
        0x6000310c:    e00c        ..      B        0x60003128 ; CLOCK_GetPllFreq + 364
        0x6000310e:    e002        ..      B        0x60003116 ; CLOCK_GetPllFreq + 346
        0x60003110:    e008        ..      B        0x60003124 ; CLOCK_GetPllFreq + 360
        0x60003112:    0880        ..      LSRS     r0,r0,#2
        0x60003114:    e7ef        ..      B        0x600030f6 ; CLOCK_GetPllFreq + 314
        0x60003116:    f8d400e0    ....    LDR      r0,[r4,#0xe0]
        0x6000311a:    f0000003    ....    AND      r0,r0,#3
        0x6000311e:    f85d0020    ]. .    LDR      r0,[sp,r0,LSL #2]
        0x60003122:    e767        g.      B        0x60002ff4 ; CLOCK_GetPllFreq + 56
        0x60003124:    4806        .H      LDR      r0,[pc,#24] ; [0x60003140] = 0x17d7840
        0x60003126:    e765        e.      B        0x60002ff4 ; CLOCK_GetPllFreq + 56
        0x60003128:    6a20         j      LDR      r0,[r4,#0x20]
        0x6000312a:    0780        ..      LSLS     r0,r0,#30
        0x6000312c:    d5a3        ..      BPL      0x60003076 ; CLOCK_GetPllFreq + 186
        0x6000312e:    e7a0        ..      B        0x60003072 ; CLOCK_GetPllFreq + 182
    $d
        0x60003130:    600050ac    .P.`    DCD    1610633388
        0x60003134:    400d8000    ...@    DCD    1074626560
        0x60003138:    0070000d    ..p.    DCD    7340045
        0x6000313c:    00808000    ....    DCD    8421376
        0x60003140:    017d7840    @x}.    DCD    25000000
    $t
    i.CLOCK_GetSysPfdFreq
    CLOCK_GetSysPfdFreq
        0x60003144:    b510        ..      PUSH     {r4,lr}
        0x60003146:    4604        .F      MOV      r4,r0
        0x60003148:    4812        .H      LDR      r0,[pc,#72] ; [0x60003194] = 0x30000d
        0x6000314a:    f7ffff37    ..7.    BL       CLOCK_GetPllFreq ; 0x60002fbc
        0x6000314e:    4912        .I      LDR      r1,[pc,#72] ; [0x60003198] = 0x400d8000
        0x60003150:    b154        T.      CBZ      r4,0x60003168 ; CLOCK_GetSysPfdFreq + 36
        0x60003152:    2c01        .,      CMP      r4,#1
        0x60003154:    d00d        ..      BEQ      0x60003172 ; CLOCK_GetSysPfdFreq + 46
        0x60003156:    2c02        .,      CMP      r4,#2
        0x60003158:    d012        ..      BEQ      0x60003180 ; CLOCK_GetSysPfdFreq + 60
        0x6000315a:    2c03        .,      CMP      r4,#3
        0x6000315c:    d015        ..      BEQ      0x6000318a ; CLOCK_GetSysPfdFreq + 70
        0x6000315e:    2000        .       MOVS     r0,#0
        0x60003160:    eb0000c0    ....    ADD      r0,r0,r0,LSL #3
        0x60003164:    0040        @.      LSLS     r0,r0,#1
        0x60003166:    bd10        ..      POP      {r4,pc}
        0x60003168:    f8d11100    ....    LDR      r1,[r1,#0x100]
        0x6000316c:    f001013f    ..?.    AND      r1,r1,#0x3f
        0x60003170:    e003        ..      B        0x6000317a ; CLOCK_GetSysPfdFreq + 54
        0x60003172:    f8d11100    ....    LDR      r1,[r1,#0x100]
        0x60003176:    f3c12105    ...!    UBFX     r1,r1,#8,#6
        0x6000317a:    fbb0f0f1    ....    UDIV     r0,r0,r1
        0x6000317e:    e7ef        ..      B        0x60003160 ; CLOCK_GetSysPfdFreq + 28
        0x60003180:    f8d11100    ....    LDR      r1,[r1,#0x100]
        0x60003184:    f3c14105    ...A    UBFX     r1,r1,#16,#6
        0x60003188:    e7f7        ..      B        0x6000317a ; CLOCK_GetSysPfdFreq + 54
        0x6000318a:    f8d11100    ....    LDR      r1,[r1,#0x100]
        0x6000318e:    f3c16105    ...a    UBFX     r1,r1,#24,#6
        0x60003192:    e7f2        ..      B        0x6000317a ; CLOCK_GetSysPfdFreq + 54
    $d
        0x60003194:    0030000d    ..0.    DCD    3145741
        0x60003198:    400d8000    ...@    DCD    1074626560
    $t
    i.CLOCK_GetUsb1PfdFreq
    CLOCK_GetUsb1PfdFreq
        0x6000319c:    b510        ..      PUSH     {r4,lr}
        0x6000319e:    4604        .F      MOV      r4,r0
        0x600031a0:    4812        .H      LDR      r0,[pc,#72] ; [0x600031ec] = 0x10000d
        0x600031a2:    f7ffff0b    ....    BL       CLOCK_GetPllFreq ; 0x60002fbc
        0x600031a6:    4912        .I      LDR      r1,[pc,#72] ; [0x600031f0] = 0x400d8000
        0x600031a8:    b154        T.      CBZ      r4,0x600031c0 ; CLOCK_GetUsb1PfdFreq + 36
        0x600031aa:    2c01        .,      CMP      r4,#1
        0x600031ac:    d00d        ..      BEQ      0x600031ca ; CLOCK_GetUsb1PfdFreq + 46
        0x600031ae:    2c02        .,      CMP      r4,#2
        0x600031b0:    d012        ..      BEQ      0x600031d8 ; CLOCK_GetUsb1PfdFreq + 60
        0x600031b2:    2c03        .,      CMP      r4,#3
        0x600031b4:    d015        ..      BEQ      0x600031e2 ; CLOCK_GetUsb1PfdFreq + 70
        0x600031b6:    2000        .       MOVS     r0,#0
        0x600031b8:    eb0000c0    ....    ADD      r0,r0,r0,LSL #3
        0x600031bc:    0040        @.      LSLS     r0,r0,#1
        0x600031be:    bd10        ..      POP      {r4,pc}
        0x600031c0:    f8d110f0    ....    LDR      r1,[r1,#0xf0]
        0x600031c4:    f001013f    ..?.    AND      r1,r1,#0x3f
        0x600031c8:    e003        ..      B        0x600031d2 ; CLOCK_GetUsb1PfdFreq + 54
        0x600031ca:    f8d110f0    ....    LDR      r1,[r1,#0xf0]
        0x600031ce:    f3c12105    ...!    UBFX     r1,r1,#8,#6
        0x600031d2:    fbb0f0f1    ....    UDIV     r0,r0,r1
        0x600031d6:    e7ef        ..      B        0x600031b8 ; CLOCK_GetUsb1PfdFreq + 28
        0x600031d8:    f8d110f0    ....    LDR      r1,[r1,#0xf0]
        0x600031dc:    f3c14105    ...A    UBFX     r1,r1,#16,#6
        0x600031e0:    e7f7        ..      B        0x600031d2 ; CLOCK_GetUsb1PfdFreq + 54
        0x600031e2:    f8d110f0    ....    LDR      r1,[r1,#0xf0]
        0x600031e6:    f3c16105    ...a    UBFX     r1,r1,#24,#6
        0x600031ea:    e7f2        ..      B        0x600031d2 ; CLOCK_GetUsb1PfdFreq + 54
    $d
        0x600031ec:    0010000d    ....    DCD    1048589
        0x600031f0:    400d8000    ...@    DCD    1074626560
    $t
    i.CLOCK_InitArmPll
    CLOCK_InitArmPll
        0x600031f4:    7801        .x      LDRB     r1,[r0,#0]
        0x600031f6:    4805        .H      LDR      r0,[pc,#20] ; [0x6000320c] = 0x400d8000
        0x600031f8:    f001017f    ....    AND      r1,r1,#0x7f
        0x600031fc:    f4415100    A..Q    ORR      r1,r1,#0x2000
        0x60003200:    6001        .`      STR      r1,[r0,#0]
        0x60003202:    6801        .h      LDR      r1,[r0,#0]
        0x60003204:    2900        .)      CMP      r1,#0
        0x60003206:    dafc        ..      BGE      0x60003202 ; CLOCK_InitArmPll + 14
        0x60003208:    4770        pG      BX       lr
    $d
        0x6000320a:    0000        ..      DCW    0
        0x6000320c:    400d8000    ...@    DCD    1074626560
    $t
    i.CLOCK_InitSysPll
    CLOCK_InitSysPll
        0x60003210:    7801        .x      LDRB     r1,[r0,#0]
        0x60003212:    4805        .H      LDR      r0,[pc,#20] ; [0x60003228] = 0x400d8000
        0x60003214:    f0010101    ....    AND      r1,r1,#1
        0x60003218:    f4415100    A..Q    ORR      r1,r1,#0x2000
        0x6000321c:    6301        .c      STR      r1,[r0,#0x30]
        0x6000321e:    6b01        .k      LDR      r1,[r0,#0x30]
        0x60003220:    2900        .)      CMP      r1,#0
        0x60003222:    dafc        ..      BGE      0x6000321e ; CLOCK_InitSysPll + 14
        0x60003224:    4770        pG      BX       lr
    $d
        0x60003226:    0000        ..      DCW    0
        0x60003228:    400d8000    ...@    DCD    1074626560
    $t
    i.CLOCK_SetDiv
    CLOCK_SetDiv
        0x6000322c:    b570        p.      PUSH     {r4-r6,lr}
        0x6000322e:    4a11        .J      LDR      r2,[pc,#68] ; [0x60003274] = 0x400fc000
        0x60003230:    ea013650    ..P6    AND      r6,r1,r0,LSR #13
        0x60003234:    0e81        ..      LSRS     r1,r0,#26
        0x60003236:    b2c4        ..      UXTB     r4,r0
        0x60003238:    f3c0354c    ..L5    UBFX     r5,r0,#13,#13
        0x6000323c:    f3c02304    ...#    UBFX     r3,r0,#8,#5
        0x60003240:    18a0        ..      ADDS     r0,r4,r2
        0x60003242:    409d        .@      LSLS     r5,r5,r3
        0x60003244:    6804        .h      LDR      r4,[r0,#0]
        0x60003246:    f3c6060c    ....    UBFX     r6,r6,#0,#13
        0x6000324a:    2920         )      CMP      r1,#0x20
        0x6000324c:    fa06f603    ....    LSL      r6,r6,r3
        0x60003250:    ea240405    $...    BIC      r4,r4,r5
        0x60003254:    ea440406    D...    ORR      r4,r4,r6
        0x60003258:    6004        .`      STR      r4,[r0,#0]
        0x6000325a:    d901        ..      BLS      0x60003260 ; CLOCK_SetDiv + 52
        0x6000325c:    f3af8000    ....    NOP.W    
        0x60003260:    d006        ..      BEQ      0x60003270 ; CLOCK_SetDiv + 68
        0x60003262:    f04f0001    O...    MOV      r0,#1
        0x60003266:    fa00f001    ....    LSL      r0,r0,r1
        0x6000326a:    6c91        .l      LDR      r1,[r2,#0x48]
        0x6000326c:    4201        .B      TST      r1,r0
        0x6000326e:    d1fc        ..      BNE      0x6000326a ; CLOCK_SetDiv + 62
        0x60003270:    bd70        p.      POP      {r4-r6,pc}
    $d
        0x60003272:    0000        ..      DCW    0
        0x60003274:    400fc000    ...@    DCD    1074774016
    $t
    i.CLOCK_SetMux
    CLOCK_SetMux
        0x60003278:    b570        p.      PUSH     {r4-r6,lr}
        0x6000327a:    4a11        .J      LDR      r2,[pc,#68] ; [0x600032c0] = 0x400fc000
        0x6000327c:    ea013650    ..P6    AND      r6,r1,r0,LSR #13
        0x60003280:    0e81        ..      LSRS     r1,r0,#26
        0x60003282:    b2c4        ..      UXTB     r4,r0
        0x60003284:    f3c0354c    ..L5    UBFX     r5,r0,#13,#13
        0x60003288:    f3c02304    ...#    UBFX     r3,r0,#8,#5
        0x6000328c:    18a0        ..      ADDS     r0,r4,r2
        0x6000328e:    409d        .@      LSLS     r5,r5,r3
        0x60003290:    6804        .h      LDR      r4,[r0,#0]
        0x60003292:    f3c6060c    ....    UBFX     r6,r6,#0,#13
        0x60003296:    2920         )      CMP      r1,#0x20
        0x60003298:    fa06f603    ....    LSL      r6,r6,r3
        0x6000329c:    ea240405    $...    BIC      r4,r4,r5
        0x600032a0:    ea440406    D...    ORR      r4,r4,r6
        0x600032a4:    6004        .`      STR      r4,[r0,#0]
        0x600032a6:    d901        ..      BLS      0x600032ac ; CLOCK_SetMux + 52
        0x600032a8:    f3af8000    ....    NOP.W    
        0x600032ac:    d006        ..      BEQ      0x600032bc ; CLOCK_SetMux + 68
        0x600032ae:    f04f0001    O...    MOV      r0,#1
        0x600032b2:    fa00f001    ....    LSL      r0,r0,r1
        0x600032b6:    6c91        .l      LDR      r1,[r2,#0x48]
        0x600032b8:    4201        .B      TST      r1,r0
        0x600032ba:    d1fc        ..      BNE      0x600032b6 ; CLOCK_SetMux + 62
        0x600032bc:    bd70        p.      POP      {r4-r6,pc}
    $d
        0x600032be:    0000        ..      DCW    0
        0x600032c0:    400fc000    ...@    DCD    1074774016
    $t
    i.ConvertFloatRadixNumToString
    ConvertFloatRadixNumToString
        0x600032c4:    e92d43f0    -..C    PUSH     {r4-r9,lr}
        0x600032c8:    4615        .F      MOV      r5,r2
        0x600032ca:    461e        .F      MOV      r6,r3
        0x600032cc:    2200        ."      MOVS     r2,#0
        0x600032ce:    f04f0930    O.0.    MOV      r9,#0x30
        0x600032d2:    ed2d8b04    -...    VPUSH    {d8-d9}
        0x600032d6:    b083        ..      SUB      sp,sp,#0xc
        0x600032d8:    4690        .F      MOV      r8,r2
        0x600032da:    f8002b01    ...+    STRB     r2,[r0],#1
        0x600032de:    ed918b00    ....    VLDR     d8,[r1,#0]
        0x600032e2:    4604        .F      MOV      r4,r0
        0x600032e4:    eeb58bc0    ....    VCMPE.F64 d8,#0.0
        0x600032e8:    eef1fa10    ....    VMRS     APSR_nzcv,FPSCR
        0x600032ec:    d107        ..      BNE      0x600032fe ; ConvertFloatRadixNumToString + 58
        0x600032ee:    2001        .       MOVS     r0,#1
        0x600032f0:    f8849000    ....    STRB     r9,[r4,#0]
        0x600032f4:    b003        ..      ADD      sp,sp,#0xc
        0x600032f6:    ecbd8b04    ....    VPOP     {d8-d9}
        0x600032fa:    e8bd83f0    ....    POP      {r4-r9,pc}
        0x600032fe:    eeb00b48    ..H.    VMOV.F64 d0,d8
        0x60003302:    4668        hF      MOV      r0,sp
        0x60003304:    f000ff80    ....    BL       __hardfp_modf ; 0x60004208
        0x60003308:    2000        .       MOVS     r0,#0
        0x6000330a:    e006        ..      B        0x6000331a ; ConvertFloatRadixNumToString + 86
        0x6000330c:    ee015a10    ...Z    VMOV     s2,r5
        0x60003310:    1c40        @.      ADDS     r0,r0,#1
        0x60003312:    eeb81bc1    ....    VCVT.F64.S32 d1,s2
        0x60003316:    ee200b01     ...    VMUL.F64 d0,d0,d1
        0x6000331a:    42b0        .B      CMP      r0,r6
        0x6000331c:    d3f6        ..      BCC      0x6000330c ; ConvertFloatRadixNumToString + 72
        0x6000331e:    eeb58bc0    ....    VCMPE.F64 d8,#0.0
        0x60003322:    eef1fa10    ....    VMRS     APSR_nzcv,FPSCR
        0x60003326:    ee016a10    ...j    VMOV     s2,r6
        0x6000332a:    eeb62b00    ...+    VMOV.F64 d2,#0.50000000
        0x6000332e:    eeb79b00    ....    VMOV.F64 d9,#1.00000000
        0x60003332:    eeb81b41    ..A.    VCVT.F64.U32 d1,s2
        0x60003336:    db0f        ..      BLT      0x60003358 ; ConvertFloatRadixNumToString + 148
        0x60003338:    ee308b02    0...    VADD.F64 d8,d0,d2
        0x6000333c:    eeb20b04    ....    VMOV.F64 d0,#10.00000000
        0x60003340:    f000ffc2    ....    BL       __hardfp_pow ; 0x600042c8
        0x60003344:    eeb40bc8    ....    VCMPE.F64 d0,d8
        0x60003348:    eef1fa10    ....    VMRS     APSR_nzcv,FPSCR
        0x6000334c:    d817        ..      BHI      0x6000337e ; ConvertFloatRadixNumToString + 186
        0x6000334e:    ed9d0b00    ....    VLDR     d0,[sp,#0]
        0x60003352:    ee300b09    0...    VADD.F64 d0,d0,d9
        0x60003356:    e010        ..      B        0x6000337a ; ConvertFloatRadixNumToString + 182
        0x60003358:    ee308b42    0.B.    VSUB.F64 d8,d0,d2
        0x6000335c:    eeb20b04    ....    VMOV.F64 d0,#10.00000000
        0x60003360:    f000ffb2    ....    BL       __hardfp_pow ; 0x600042c8
        0x60003364:    eeb10b40    ..@.    VNEG.F64 d0,d0
        0x60003368:    eeb40bc8    ....    VCMPE.F64 d0,d8
        0x6000336c:    eef1fa10    ....    VMRS     APSR_nzcv,FPSCR
        0x60003370:    db05        ..      BLT      0x6000337e ; ConvertFloatRadixNumToString + 186
        0x60003372:    ed9d0b00    ....    VLDR     d0,[sp,#0]
        0x60003376:    ee300b49    0.I.    VSUB.F64 d0,d0,d9
        0x6000337a:    ed8d0b00    ....    VSTR     d0,[sp,#0]
        0x6000337e:    2700        .'      MOVS     r7,#0
        0x60003380:    e029        ).      B        0x600033d6 ; ConvertFloatRadixNumToString + 274
        0x60003382:    bf00        ..      NOP      
        0x60003384:    ee005a10    ...Z    VMOV     s0,r5
        0x60003388:    eeb80bc0    ....    VCVT.F64.S32 d0,s0
        0x6000338c:    ee889b00    ....    VDIV.F64 d9,d8,d0
        0x60003390:    ec510b19    Q...    VMOV     r0,r1,d9
        0x60003394:    f7fff9ab    ....    BL       __aeabi_d2lz ; 0x600026ee
        0x60003398:    fba02c05    ...,    UMULL    r2,r12,r0,r5
        0x6000339c:    17eb        ..      ASRS     r3,r5,#31
        0x6000339e:    fb01c105    ....    MLA      r1,r1,r5,r12
        0x600033a2:    fb001103    ....    MLA      r1,r0,r3,r1
        0x600033a6:    4610        .F      MOV      r0,r2
        0x600033a8:    f7fff98d    ....    BL       __aeabi_l2d ; 0x600026c6
        0x600033ac:    ec410b10    A...    VMOV     d0,r0,r1
        0x600033b0:    ee380b40    8.@.    VSUB.F64 d0,d8,d0
        0x600033b4:    eebd0bc0    ....    VCVT.S32.F64 s0,d0
        0x600033b8:    ee100a10    ....    VMOV     r0,s0
        0x600033bc:    2800        .(      CMP      r0,#0
        0x600033be:    da02        ..      BGE      0x600033c6 ; ConvertFloatRadixNumToString + 258
        0x600033c0:    43c0        .C      MVNS     r0,r0
        0x600033c2:    3031        10      ADDS     r0,r0,#0x31
        0x600033c4:    e000        ..      B        0x600033c8 ; ConvertFloatRadixNumToString + 260
        0x600033c6:    3030        00      ADDS     r0,r0,#0x30
        0x600033c8:    1c7f        ..      ADDS     r7,r7,#1
        0x600033ca:    eeb08b49    ..I.    VMOV.F64 d8,d9
        0x600033ce:    f1080801    ....    ADD      r8,r8,#1
        0x600033d2:    f8040b01    ....    STRB     r0,[r4],#1
        0x600033d6:    42b7        .B      CMP      r7,r6
        0x600033d8:    d3d4        ..      BCC      0x60003384 ; ConvertFloatRadixNumToString + 192
        0x600033da:    202e        .       MOVS     r0,#0x2e
        0x600033dc:    f8040b01    ....    STRB     r0,[r4],#1
        0x600033e0:    ed9d0b00    ....    VLDR     d0,[sp,#0]
        0x600033e4:    f1080201    ....    ADD      r2,r8,#1
        0x600033e8:    eebd0bc0    ....    VCVT.S32.F64 s0,d0
        0x600033ec:    ee101a10    ....    VMOV     r1,s0
        0x600033f0:    b919        ..      CBNZ     r1,0x600033fa ; ConvertFloatRadixNumToString + 310
        0x600033f2:    1c52        R.      ADDS     r2,r2,#1
        0x600033f4:    f8849000    ....    STRB     r9,[r4,#0]
        0x600033f8:    e00e        ..      B        0x60003418 ; ConvertFloatRadixNumToString + 340
        0x600033fa:    fb91f3f5    ....    SDIV     r3,r1,r5
        0x600033fe:    fb031015    ....    MLS      r0,r3,r5,r1
        0x60003402:    2800        .(      CMP      r0,#0
        0x60003404:    da02        ..      BGE      0x6000340c ; ConvertFloatRadixNumToString + 328
        0x60003406:    43c0        .C      MVNS     r0,r0
        0x60003408:    3031        10      ADDS     r0,r0,#0x31
        0x6000340a:    e000        ..      B        0x6000340e ; ConvertFloatRadixNumToString + 330
        0x6000340c:    3030        00      ADDS     r0,r0,#0x30
        0x6000340e:    1c52        R.      ADDS     r2,r2,#1
        0x60003410:    0019        ..      MOVS     r1,r3
        0x60003412:    f8040b01    ....    STRB     r0,[r4],#1
        0x60003416:    d1f0        ..      BNE      0x600033fa ; ConvertFloatRadixNumToString + 310
        0x60003418:    4610        .F      MOV      r0,r2
        0x6000341a:    e76b        k.      B        0x600032f4 ; ConvertFloatRadixNumToString + 48
    i.ConvertRadixNumToString
    ConvertRadixNumToString
        0x6000341c:    e92d4ff8    -..O    PUSH     {r3-r11,lr}
        0x60003420:    461f        .F      MOV      r7,r3
        0x60003422:    2300        .#      MOVS     r3,#0
        0x60003424:    2a00        .*      CMP      r2,#0
        0x60003426:    469b        .F      MOV      r11,r3
        0x60003428:    ea4f72e7    O..r    ASR      r2,r7,#31
        0x6000342c:    9200        ..      STR      r2,[sp,#0]
        0x6000342e:    f8003b01    ...;    STRB     r3,[r0],#1
        0x60003432:    e9d15400    ...T    LDRD     r5,r4,[r1,#0]
        0x60003436:    4606        .F      MOV      r6,r0
        0x60003438:    f04f0230    O.0.    MOV      r2,#0x30
        0x6000343c:    d023        #.      BEQ      0x60003486 ; ConvertRadixNumToString + 106
        0x6000343e:    ea550004    U...    ORRS     r0,r5,r4
        0x60003442:    d023        #.      BEQ      0x6000348c ; ConvertRadixNumToString + 112
        0x60003444:    e01b        ..      B        0x6000347e ; ConvertRadixNumToString + 98
        0x60003446:    9b00        ..      LDR      r3,[sp,#0]
        0x60003448:    463a        :F      MOV      r2,r7
        0x6000344a:    4628        (F      MOV      r0,r5
        0x6000344c:    4621        !F      MOV      r1,r4
        0x6000344e:    f7fff8f0    ....    BL       __aeabi_ldivmod ; 0x60002632
        0x60003452:    fba03c07    ...<    UMULL    r3,r12,r0,r7
        0x60003456:    9a00        ..      LDR      r2,[sp,#0]
        0x60003458:    fb01cc07    ....    MLA      r12,r1,r7,r12
        0x6000345c:    fb00cc02    ....    MLA      r12,r0,r2,r12
        0x60003460:    1aea        ..      SUBS     r2,r5,r3
        0x60003462:    eb74040c    t...    SBCS     r4,r4,r12
        0x60003466:    d502        ..      BPL      0x6000346e ; ConvertRadixNumToString + 82
        0x60003468:    2331        1#      MOVS     r3,#0x31
        0x6000346a:    43d2        .C      MVNS     r2,r2
        0x6000346c:    e000        ..      B        0x60003470 ; ConvertRadixNumToString + 84
        0x6000346e:    2330        0#      MOVS     r3,#0x30
        0x60003470:    4605        .F      MOV      r5,r0
        0x60003472:    18d2        ..      ADDS     r2,r2,r3
        0x60003474:    460c        .F      MOV      r4,r1
        0x60003476:    f10b0b01    ....    ADD      r11,r11,#1
        0x6000347a:    f8062b01    ...+    STRB     r2,[r6],#1
        0x6000347e:    ea550004    U...    ORRS     r0,r5,r4
        0x60003482:    d1e0        ..      BNE      0x60003446 ; ConvertRadixNumToString + 42
        0x60003484:    e031        1.      B        0x600034ea ; ConvertRadixNumToString + 206
        0x60003486:    ea550004    U...    ORRS     r0,r5,r4
        0x6000348a:    d12b        +.      BNE      0x600034e4 ; ConvertRadixNumToString + 200
        0x6000348c:    2001        .       MOVS     r0,#1
        0x6000348e:    7032        2p      STRB     r2,[r6,#0]
        0x60003490:    e8bd8ff8    ....    POP      {r3-r11,pc}
        0x60003494:    9b00        ..      LDR      r3,[sp,#0]
        0x60003496:    463a        :F      MOV      r2,r7
        0x60003498:    4628        (F      MOV      r0,r5
        0x6000349a:    4621        !F      MOV      r1,r4
        0x6000349c:    f7fff898    ....    BL       __aeabi_uldivmod ; 0x600025d0
        0x600034a0:    fba09a07    ....    UMULL    r9,r10,r0,r7
        0x600034a4:    f8ddc000    ....    LDR      r12,[sp,#0]
        0x600034a8:    f04f080a    O...    MOV      r8,#0xa
        0x600034ac:    fb01a207    ....    MLA      r2,r1,r7,r10
        0x600034b0:    fb00230c    ...#    MLA      r3,r0,r12,r2
        0x600034b4:    ebb50209    ....    SUBS     r2,r5,r9
        0x600034b8:    eb640403    d...    SBC      r4,r4,r3
        0x600034bc:    ebb20308    ....    SUBS     r3,r2,r8
        0x600034c0:    f1740300    t...    SBCS     r3,r4,#0
        0x600034c4:    d201        ..      BCS      0x600034ca ; ConvertRadixNumToString + 174
        0x600034c6:    3230        02      ADDS     r2,r2,#0x30
        0x600034c8:    e006        ..      B        0x600034d8 ; ConvertRadixNumToString + 188
        0x600034ca:    9b0a        ..      LDR      r3,[sp,#0x28]
        0x600034cc:    b10b        ..      CBZ      r3,0x600034d2 ; ConvertRadixNumToString + 182
        0x600034ce:    2341        A#      MOVS     r3,#0x41
        0x600034d0:    e000        ..      B        0x600034d4 ; ConvertRadixNumToString + 184
        0x600034d2:    2361        a#      MOVS     r3,#0x61
        0x600034d4:    189a        ..      ADDS     r2,r3,r2
        0x600034d6:    3a0a        .:      SUBS     r2,r2,#0xa
        0x600034d8:    4605        .F      MOV      r5,r0
        0x600034da:    f10b0b01    ....    ADD      r11,r11,#1
        0x600034de:    460c        .F      MOV      r4,r1
        0x600034e0:    f8062b01    ...+    STRB     r2,[r6],#1
        0x600034e4:    ea550004    U...    ORRS     r0,r5,r4
        0x600034e8:    d1d4        ..      BNE      0x60003494 ; ConvertRadixNumToString + 120
        0x600034ea:    4658        XF      MOV      r0,r11
        0x600034ec:    e7d0        ..      B        0x60003490 ; ConvertRadixNumToString + 116
    i.DbgConsole_Init
    DbgConsole_Init
        0x600034ee:    b510        ..      PUSH     {r4,lr}
        0x600034f0:    0014        ..      MOVS     r4,r2
        0x600034f2:    d005        ..      BEQ      0x60003500 ; DbgConsole_Init + 18
        0x600034f4:    460a        .F      MOV      r2,r1
        0x600034f6:    4621        !F      MOV      r1,r4
        0x600034f8:    e8bd4010    ...@    POP      {r4,lr}
        0x600034fc:    f000b96e    ..n.    B.W      LOG_Init ; 0x600037dc
        0x60003500:    f3af8000    ....    NOP.W    
    i.DbgConsole_Printf
    DbgConsole_Printf
        0x60003504:    b40f        ..      PUSH     {r0-r3}
        0x60003506:    2180        .!      MOVS     r1,#0x80
        0x60003508:    b500        ..      PUSH     {lr}
        0x6000350a:    b0a1        ..      SUB      sp,sp,#0x84
        0x6000350c:    4668        hF      MOV      r0,sp
        0x6000350e:    f7fff8c8    ....    BL       __aeabi_memclr ; 0x600026a2
        0x60003512:    4b06        .K      LDR      r3,[pc,#24] ; [0x6000352c] = 0x60003531
        0x60003514:    a923        #.      ADD      r1,sp,#0x8c
        0x60003516:    9822        ".      LDR      r0,[sp,#0x88]
        0x60003518:    466a        jF      MOV      r2,sp
        0x6000351a:    f000fb71    ..q.    BL       StrFormatPrintf ; 0x60003c00
        0x6000351e:    4601        .F      MOV      r1,r0
        0x60003520:    4668        hF      MOV      r0,sp
        0x60003522:    f000f974    ..t.    BL       LOG_Push ; 0x6000380e
        0x60003526:    b021        !.      ADD      sp,sp,#0x84
        0x60003528:    f85dfb14    ]...    LDR      pc,[sp],#0x14
    $d
        0x6000352c:    60003531    15.`    DCD    1610626353
    $t
    i.DbgConsole_RelocateLog
    DbgConsole_RelocateLog
        0x60003530:    e92d47f0    -..G    PUSH     {r4-r10,lr}
        0x60003534:    2700        .'      MOVS     r7,#0
        0x60003536:    461e        .F      MOV      r6,r3
        0x60003538:    4690        .F      MOV      r8,r2
        0x6000353a:    460c        .F      MOV      r4,r1
        0x6000353c:    4681        .F      MOV      r9,r0
        0x6000353e:    463d        =F      MOV      r5,r7
        0x60003540:    e00e        ..      B        0x60003560 ; DbgConsole_RelocateLog + 48
        0x60003542:    6821        !h      LDR      r1,[r4,#0]
        0x60003544:    1c48        H.      ADDS     r0,r1,#1
        0x60003546:    2880        .(      CMP      r0,#0x80
        0x60003548:    d303        ..      BCC      0x60003552 ; DbgConsole_RelocateLog + 34
        0x6000354a:    4648        HF      MOV      r0,r9
        0x6000354c:    f000f95f    .._.    BL       LOG_Push ; 0x6000380e
        0x60003550:    6027        '`      STR      r7,[r4,#0]
        0x60003552:    6822        "h      LDR      r2,[r4,#0]
        0x60003554:    f8098002    ....    STRB     r8,[r9,r2]
        0x60003558:    6820         h      LDR      r0,[r4,#0]
        0x6000355a:    1c40        @.      ADDS     r0,r0,#1
        0x6000355c:    6020         `      STR      r0,[r4,#0]
        0x6000355e:    1c6d        m.      ADDS     r5,r5,#1
        0x60003560:    42b5        .B      CMP      r5,r6
        0x60003562:    dbee        ..      BLT      0x60003542 ; DbgConsole_RelocateLog + 18
        0x60003564:    e8bd87f0    ....    POP      {r4-r10,pc}
    i.GPIO_PinInit
    GPIO_PinInit
        0x60003568:    e92d41f0    -..A    PUSH     {r4-r8,lr}
        0x6000356c:    460e        .F      MOV      r6,r1
        0x6000356e:    491e        .I      LDR      r1,[pc,#120] ; [0x600035e8] = 0x600050bc
        0x60003570:    4615        .F      MOV      r5,r2
        0x60003572:    4604        .F      MOV      r4,r0
        0x60003574:    f05f0000    _...    MOVS.W   r0,#0
        0x60003578:    f8513020    Q. 0    LDR      r3,[r1,r0,LSL #2]
        0x6000357c:    42a3        .B      CMP      r3,r4
        0x6000357e:    d003        ..      BEQ      0x60003588 ; GPIO_PinInit + 32
        0x60003580:    1c40        @.      ADDS     r0,r0,#1
        0x60003582:    2806        .(      CMP      r0,#6
        0x60003584:    d3f8        ..      BCC      0x60003578 ; GPIO_PinInit + 16
        0x60003586:    e001        ..      B        0x6000358c ; GPIO_PinInit + 36
        0x60003588:    2806        .(      CMP      r0,#6
        0x6000358a:    d301        ..      BCC      0x60003590 ; GPIO_PinInit + 40
        0x6000358c:    f3af8000    ....    NOP.W    
        0x60003590:    4915        .I      LDR      r1,[pc,#84] ; [0x600035e8] = 0x600050bc
        0x60003592:    3118        .1      ADDS     r1,r1,#0x18
        0x60003594:    f9310010    1...    LDRSH    r0,[r1,r0,LSL #1]
        0x60003598:    f000021f    ....    AND      r2,r0,#0x1f
        0x6000359c:    0a01        ..      LSRS     r1,r0,#8
        0x6000359e:    2906        .)      CMP      r1,#6
        0x600035a0:    d8f4        ..      BHI      0x6000358c ; GPIO_PinInit + 36
        0x600035a2:    4b12        .K      LDR      r3,[pc,#72] ; [0x600035ec] = 0x400fc068
        0x600035a4:    2003        .       MOVS     r0,#3
        0x600035a6:    eb030181    ....    ADD      r1,r3,r1,LSL #2
        0x600035aa:    680b        .h      LDR      r3,[r1,#0]
        0x600035ac:    4090        .@      LSLS     r0,r0,r2
        0x600035ae:    4383        .C      BICS     r3,r3,r0
        0x600035b0:    4303        .C      ORRS     r3,r3,r0
        0x600035b2:    600b        .`      STR      r3,[r1,#0]
        0x600035b4:    6960        `i      LDR      r0,[r4,#0x14]
        0x600035b6:    2701        .'      MOVS     r7,#1
        0x600035b8:    40b7        .@      LSLS     r7,r7,r6
        0x600035ba:    43b8        .C      BICS     r0,r0,r7
        0x600035bc:    6160        `a      STR      r0,[r4,#0x14]
        0x600035be:    7828        (x      LDRB     r0,[r5,#0]
        0x600035c0:    b170        p.      CBZ      r0,0x600035e0 ; GPIO_PinInit + 120
        0x600035c2:    786a        jx      LDRB     r2,[r5,#1]
        0x600035c4:    4631        1F      MOV      r1,r6
        0x600035c6:    4620         F      MOV      r0,r4
        0x600035c8:    f000f849    ..I.    BL       GPIO_PinWrite ; 0x6000365e
        0x600035cc:    6860        `h      LDR      r0,[r4,#4]
        0x600035ce:    4338        8C      ORRS     r0,r0,r7
        0x600035d0:    6060        ``      STR      r0,[r4,#4]
        0x600035d2:    78aa        .x      LDRB     r2,[r5,#2]
        0x600035d4:    4620         F      MOV      r0,r4
        0x600035d6:    4631        1F      MOV      r1,r6
        0x600035d8:    e8bd41f0    ...A    POP      {r4-r8,lr}
        0x600035dc:    f000b808    ....    B.W      GPIO_PinSetInterruptConfig ; 0x600035f0
        0x600035e0:    6860        `h      LDR      r0,[r4,#4]
        0x600035e2:    43b8        .C      BICS     r0,r0,r7
        0x600035e4:    e7f4        ..      B        0x600035d0 ; GPIO_PinInit + 104
    $d
        0x600035e6:    0000        ..      DCW    0
        0x600035e8:    600050bc    .P.`    DCD    1610633404
        0x600035ec:    400fc068    h..@    DCD    1074774120
    $t
    i.GPIO_PinSetInterruptConfig
    GPIO_PinSetInterruptConfig
        0x600035f0:    b5f0        ..      PUSH     {r4-r7,lr}
        0x600035f2:    69c3        .i      LDR      r3,[r0,#0x1c]
        0x600035f4:    2501        .%      MOVS     r5,#1
        0x600035f6:    2910        .)      CMP      r1,#0x10
        0x600035f8:    fa05f601    ....    LSL      r6,r5,r1
        0x600035fc:    ea230306    #...    BIC      r3,r3,r6
        0x60003600:    61c3        .a      STR      r3,[r0,#0x1c]
        0x60003602:    d202        ..      BCS      0x6000360a ; GPIO_PinSetInterruptConfig + 26
        0x60003604:    f100030c    ....    ADD      r3,r0,#0xc
        0x60003608:    e002        ..      B        0x60003610 ; GPIO_PinSetInterruptConfig + 32
        0x6000360a:    3910        .9      SUBS     r1,r1,#0x10
        0x6000360c:    f1000310    ....    ADD      r3,r0,#0x10
        0x60003610:    2403        .$      MOVS     r4,#3
        0x60003612:    2a06        .*      CMP      r2,#6
        0x60003614:    d218        ..      BCS      0x60003648 ; GPIO_PinSetInterruptConfig + 88
        0x60003616:    e8dff002    ....    TBB      [pc,r2]
    $d
        0x6000361a:    0317        ..      DCW    791
        0x6000361c:    1e180f08    ....    DCD    504893192
    $t
        0x60003620:    6818        .h      LDR      r0,[r3,#0]
        0x60003622:    0049        I.      LSLS     r1,r1,#1
        0x60003624:    408c        .@      LSLS     r4,r4,r1
        0x60003626:    43a0        .C      BICS     r0,r0,r4
        0x60003628:    e013        ..      B        0x60003652 ; GPIO_PinSetInterruptConfig + 98
        0x6000362a:    681a        .h      LDR      r2,[r3,#0]
        0x6000362c:    0048        H.      LSLS     r0,r1,#1
        0x6000362e:    4084        .@      LSLS     r4,r4,r0
        0x60003630:    4085        .@      LSLS     r5,r5,r0
        0x60003632:    43a2        .C      BICS     r2,r2,r4
        0x60003634:    432a        *C      ORRS     r2,r2,r5
        0x60003636:    e006        ..      B        0x60003646 ; GPIO_PinSetInterruptConfig + 86
        0x60003638:    681a        .h      LDR      r2,[r3,#0]
        0x6000363a:    0048        H.      LSLS     r0,r1,#1
        0x6000363c:    2102        .!      MOVS     r1,#2
        0x6000363e:    4084        .@      LSLS     r4,r4,r0
        0x60003640:    4081        .@      LSLS     r1,r1,r0
        0x60003642:    43a2        .C      BICS     r2,r2,r4
        0x60003644:    430a        .C      ORRS     r2,r2,r1
        0x60003646:    601a        .`      STR      r2,[r3,#0]
        0x60003648:    bdf0        ..      POP      {r4-r7,pc}
        0x6000364a:    6818        .h      LDR      r0,[r3,#0]
        0x6000364c:    0049        I.      LSLS     r1,r1,#1
        0x6000364e:    408c        .@      LSLS     r4,r4,r1
        0x60003650:    4320         C      ORRS     r0,r0,r4
        0x60003652:    6018        .`      STR      r0,[r3,#0]
        0x60003654:    bdf0        ..      POP      {r4-r7,pc}
        0x60003656:    69c1        .i      LDR      r1,[r0,#0x1c]
        0x60003658:    4331        1C      ORRS     r1,r1,r6
        0x6000365a:    61c1        .a      STR      r1,[r0,#0x1c]
        0x6000365c:    bdf0        ..      POP      {r4-r7,pc}
    i.GPIO_PinWrite
    GPIO_PinWrite
        0x6000365e:    2920         )      CMP      r1,#0x20
        0x60003660:    b510        ..      PUSH     {r4,lr}
        0x60003662:    d301        ..      BCC      0x60003668 ; GPIO_PinWrite + 10
        0x60003664:    f3af8000    ....    NOP.W    
        0x60003668:    2301        .#      MOVS     r3,#1
        0x6000366a:    fa03f301    ....    LSL      r3,r3,r1
        0x6000366e:    6801        .h      LDR      r1,[r0,#0]
        0x60003670:    b112        ..      CBZ      r2,0x60003678 ; GPIO_PinWrite + 26
        0x60003672:    4319        .C      ORRS     r1,r1,r3
        0x60003674:    6001        .`      STR      r1,[r0,#0]
        0x60003676:    bd10        ..      POP      {r4,pc}
        0x60003678:    4399        .C      BICS     r1,r1,r3
        0x6000367a:    e7fb        ..      B        0x60003674 ; GPIO_PinWrite + 22
    i.IOMUXC_SetPinMux
    IOMUXC_SetPinMux
        0x6000367c:    b530        0.      PUSH     {r4,r5,lr}
        0x6000367e:    2510        .%      MOVS     r5,#0x10
        0x60003680:    f0010107    ....    AND      r1,r1,#7
        0x60003684:    9c04        ..      LDR      r4,[sp,#0x10]
        0x60003686:    ea051404    ....    AND      r4,r5,r4,LSL #4
        0x6000368a:    ea410104    A...    ORR      r1,r1,r4
        0x6000368e:    6001        .`      STR      r1,[r0,#0]
        0x60003690:    2a00        .*      CMP      r2,#0
        0x60003692:    d000        ..      BEQ      0x60003696 ; IOMUXC_SetPinMux + 26
        0x60003694:    6013        .`      STR      r3,[r2,#0]
        0x60003696:    bd30        0.      POP      {r4,r5,pc}
    i.IOMUXC_SetPinMux
    IOMUXC_SetPinMux
        0x60003698:    b530        0.      PUSH     {r4,r5,lr}
        0x6000369a:    2510        .%      MOVS     r5,#0x10
        0x6000369c:    f0010107    ....    AND      r1,r1,#7
        0x600036a0:    9c04        ..      LDR      r4,[sp,#0x10]
        0x600036a2:    ea051404    ....    AND      r4,r5,r4,LSL #4
        0x600036a6:    ea410104    A...    ORR      r1,r1,r4
        0x600036aa:    6001        .`      STR      r1,[r0,#0]
        0x600036ac:    2a00        .*      CMP      r2,#0
        0x600036ae:    d000        ..      BEQ      0x600036b2 ; IOMUXC_SetPinMux + 26
        0x600036b0:    6013        .`      STR      r3,[r2,#0]
        0x600036b2:    bd30        0.      POP      {r4,r5,pc}
    i.IO_Init
    IO_Init
        0x600036b4:    b570        p.      PUSH     {r4-r6,lr}
        0x600036b6:    b086        ..      SUB      sp,sp,#0x18
        0x600036b8:    4616        .F      MOV      r6,r2
        0x600036ba:    460d        .F      MOV      r5,r1
        0x600036bc:    b1d0        ..      CBZ      r0,0x600036f4 ; IO_Init + 64
        0x600036be:    4c0e        .L      LDR      r4,[pc,#56] ; [0x600036f8] = 0x20000010
        0x600036c0:    7901        .y      LDRB     r1,[r0,#4]
        0x600036c2:    2902        .)      CMP      r1,#2
        0x600036c4:    7121        !q      STRB     r1,[r4,#4]
        0x600036c6:    6800        .h      LDR      r0,[r0,#0]
        0x600036c8:    6020         `      STR      r0,[r4,#0]
        0x600036ca:    d111        ..      BNE      0x600036f0 ; IO_Init + 60
        0x600036cc:    4668        hF      MOV      r0,sp
        0x600036ce:    f000f92f    ../.    BL       LPUART_GetDefaultConfig ; 0x60003930
        0x600036d2:    9500        ..      STR      r5,[sp,#0]
        0x600036d4:    4632        2F      MOV      r2,r6
        0x600036d6:    6820         h      LDR      r0,[r4,#0]
        0x600036d8:    4669        iF      MOV      r1,sp
        0x600036da:    f000f95d    ..].    BL       LPUART_Init ; 0x60003998
        0x600036de:    6820         h      LDR      r0,[r4,#0]
        0x600036e0:    6981        .i      LDR      r1,[r0,#0x18]
        0x600036e2:    f4412100    A..!    ORR      r1,r1,#0x80000
        0x600036e6:    6181        .a      STR      r1,[r0,#0x18]
        0x600036e8:    6981        .i      LDR      r1,[r0,#0x18]
        0x600036ea:    f4412180    A..!    ORR      r1,r1,#0x40000
        0x600036ee:    6181        .a      STR      r1,[r0,#0x18]
        0x600036f0:    b006        ..      ADD      sp,sp,#0x18
        0x600036f2:    bd70        p.      POP      {r4-r6,pc}
        0x600036f4:    f3af8000    ....    NOP.W    
    $d
        0x600036f8:    20000010    ...     DCD    536870928
    $t
    i.IO_Transfer
    IO_Transfer
        0x600036fc:    4603        .F      MOV      r3,r0
        0x600036fe:    480b        .H      LDR      r0,[pc,#44] ; [0x6000372c] = 0x20000010
        0x60003700:    b510        ..      PUSH     {r4,lr}
        0x60003702:    2400        .$      MOVS     r4,#0
        0x60003704:    7900        .y      LDRB     r0,[r0,#4]
        0x60003706:    2802        .(      CMP      r0,#2
        0x60003708:    d002        ..      BEQ      0x60003710 ; IO_Transfer + 20
        0x6000370a:    2401        .$      MOVS     r4,#1
        0x6000370c:    4620         F      MOV      r0,r4
        0x6000370e:    bd10        ..      POP      {r4,pc}
        0x60003710:    4806        .H      LDR      r0,[pc,#24] ; [0x6000372c] = 0x20000010
        0x60003712:    2a00        .*      CMP      r2,#0
        0x60003714:    460a        .F      MOV      r2,r1
        0x60003716:    4619        .F      MOV      r1,r3
        0x60003718:    6800        .h      LDR      r0,[r0,#0]
        0x6000371a:    d002        ..      BEQ      0x60003722 ; IO_Transfer + 38
        0x6000371c:    f000fa62    ..b.    BL       LPUART_WriteBlocking ; 0x60003be4
        0x60003720:    e7f4        ..      B        0x6000370c ; IO_Transfer + 16
        0x60003722:    f000fa13    ....    BL       LPUART_ReadBlocking ; 0x60003b4c
        0x60003726:    4604        .F      MOV      r4,r0
        0x60003728:    e7f0        ..      B        0x6000370c ; IO_Transfer + 16
    $d
        0x6000372a:    0000        ..      DCW    0
        0x6000372c:    20000010    ...     DCD    536870928
    $t
    i.LED_GPIO_Config
    LED_GPIO_Config
        0x60003730:    e92d41fc    -..A    PUSH     {r2-r8,lr}
        0x60003734:    2400        .$      MOVS     r4,#0
        0x60003736:    4d26        &M      LDR      r5,[pc,#152] ; [0x600037d0] = 0x401f82d0
        0x60003738:    4826        &H      LDR      r0,[pc,#152] ; [0x600037d4] = 0x401f80e0
        0x6000373a:    2105        .!      MOVS     r1,#5
        0x6000373c:    4623        #F      MOV      r3,r4
        0x6000373e:    4622        "F      MOV      r2,r4
        0x60003740:    e9cd5400    ...T    STRD     r5,r4,[sp,#0]
        0x60003744:    f7ffffa8    ....    BL       IOMUXC_SetPinMux ; 0x60003698
        0x60003748:    4e21        !N      LDR      r6,[pc,#132] ; [0x600037d0] = 0x401f82d0
        0x6000374a:    2300        .#      MOVS     r3,#0
        0x6000374c:    4821        !H      LDR      r0,[pc,#132] ; [0x600037d4] = 0x401f80e0
        0x6000374e:    2105        .!      MOVS     r1,#5
        0x60003750:    363c        <6      ADDS     r6,r6,#0x3c
        0x60003752:    461a        .F      MOV      r2,r3
        0x60003754:    303c        <0      ADDS     r0,r0,#0x3c
        0x60003756:    e9cd6400    ...d    STRD     r6,r4,[sp,#0]
        0x6000375a:    f7ffff9d    ....    BL       IOMUXC_SetPinMux ; 0x60003698
        0x6000375e:    481d        .H      LDR      r0,[pc,#116] ; [0x600037d4] = 0x401f80e0
        0x60003760:    2300        .#      MOVS     r3,#0
        0x60003762:    f1050804    ....    ADD      r8,r5,#4
        0x60003766:    461a        .F      MOV      r2,r3
        0x60003768:    2105        .!      MOVS     r1,#5
        0x6000376a:    1d00        ..      ADDS     r0,r0,#4
        0x6000376c:    e9cd8400    ....    STRD     r8,r4,[sp,#0]
        0x60003770:    f7ffff92    ....    BL       IOMUXC_SetPinMux ; 0x60003698
        0x60003774:    4817        .H      LDR      r0,[pc,#92] ; [0x600037d4] = 0x401f80e0
        0x60003776:    1d37        7.      ADDS     r7,r6,#4
        0x60003778:    2300        .#      MOVS     r3,#0
        0x6000377a:    2105        .!      MOVS     r1,#5
        0x6000377c:    461a        .F      MOV      r2,r3
        0x6000377e:    3040        @0      ADDS     r0,r0,#0x40
        0x60003780:    e9cd7400    ...t    STRD     r7,r4,[sp,#0]
        0x60003784:    f7ffff88    ....    BL       IOMUXC_SetPinMux ; 0x60003698
        0x60003788:    20b0        .       MOVS     r0,#0xb0
        0x6000378a:    6028        (`      STR      r0,[r5,#0]
        0x6000378c:    6030        0`      STR      r0,[r6,#0]
        0x6000378e:    6038        8`      STR      r0,[r7,#0]
        0x60003790:    f8c80000    ....    STR      r0,[r8,#0]
        0x60003794:    2001        .       MOVS     r0,#1
        0x60003796:    f88d0000    ....    STRB     r0,[sp,#0]
        0x6000379a:    2109        .!      MOVS     r1,#9
        0x6000379c:    f88d0001    ....    STRB     r0,[sp,#1]
        0x600037a0:    466a        jF      MOV      r2,sp
        0x600037a2:    f88d4002    ...@    STRB     r4,[sp,#2]
        0x600037a6:    4c0c        .L      LDR      r4,[pc,#48] ; [0x600037d8] = 0x401b8000
        0x600037a8:    4620         F      MOV      r0,r4
        0x600037aa:    f7fffedd    ....    BL       GPIO_PinInit ; 0x60003568
        0x600037ae:    2118        .!      MOVS     r1,#0x18
        0x600037b0:    466a        jF      MOV      r2,sp
        0x600037b2:    4620         F      MOV      r0,r4
        0x600037b4:    f7fffed8    ....    BL       GPIO_PinInit ; 0x60003568
        0x600037b8:    2119        .!      MOVS     r1,#0x19
        0x600037ba:    466a        jF      MOV      r2,sp
        0x600037bc:    4620         F      MOV      r0,r4
        0x600037be:    f7fffed3    ....    BL       GPIO_PinInit ; 0x60003568
        0x600037c2:    210a        .!      MOVS     r1,#0xa
        0x600037c4:    466a        jF      MOV      r2,sp
        0x600037c6:    4620         F      MOV      r0,r4
        0x600037c8:    f7fffece    ....    BL       GPIO_PinInit ; 0x60003568
        0x600037cc:    e8bd81fc    ....    POP      {r2-r8,pc}
    $d
        0x600037d0:    401f82d0    ...@    DCD    1075806928
        0x600037d4:    401f80e0    ...@    DCD    1075806432
        0x600037d8:    401b8000    ...@    DCD    1075544064
    $t
    i.LOG_Init
    LOG_Init
        0x600037dc:    b57c        |.      PUSH     {r2-r6,lr}
        0x600037de:    461c        .F      MOV      r4,r3
        0x600037e0:    4615        .F      MOV      r5,r2
        0x600037e2:    2300        .#      MOVS     r3,#0
        0x600037e4:    4622        "F      MOV      r2,r4
        0x600037e6:    9000        ..      STR      r0,[sp,#0]
        0x600037e8:    4668        hF      MOV      r0,sp
        0x600037ea:    f88d1004    ....    STRB     r1,[sp,#4]
        0x600037ee:    4629        )F      MOV      r1,r5
        0x600037f0:    f7ffff60    ..`.    BL       IO_Init ; 0x600036b4
        0x600037f4:    2000        .       MOVS     r0,#0
        0x600037f6:    bd7c        |.      POP      {r2-r6,pc}
    i.LOG_Pop
    LOG_Pop
        0x600037f8:    b510        ..      PUSH     {r4,lr}
        0x600037fa:    000c        ..      MOVS     r4,r1
        0x600037fc:    d005        ..      BEQ      0x6000380a ; LOG_Pop + 18
        0x600037fe:    b120         .      CBZ      r0,0x6000380a ; LOG_Pop + 18
        0x60003800:    2201        ."      MOVS     r2,#1
        0x60003802:    f7ffff7b    ..{.    BL       IO_Transfer ; 0x600036fc
        0x60003806:    b100        ..      CBZ      r0,0x6000380a ; LOG_Pop + 18
        0x60003808:    2400        .$      MOVS     r4,#0
        0x6000380a:    4620         F      MOV      r0,r4
        0x6000380c:    bd10        ..      POP      {r4,pc}
    i.LOG_Push
    LOG_Push
        0x6000380e:    b510        ..      PUSH     {r4,lr}
        0x60003810:    b118        ..      CBZ      r0,0x6000381a ; LOG_Push + 12
        0x60003812:    e8bd4010    ...@    POP      {r4,lr}
        0x60003816:    f7ffbfef    ....    B.W      LOG_Pop ; 0x600037f8
        0x6000381a:    f3af8000    ....    NOP.W    
        0x6000381e:    0000        ..      MOVS     r0,r0
    i.LPUART1_DriverIRQHandler
    LPUART1_DriverIRQHandler
        0x60003820:    4a04        .J      LDR      r2,[pc,#16] ; [0x60003834] = 0x2000000c
        0x60003822:    4802        .H      LDR      r0,[pc,#8] ; [0x6000382c] = 0x20000030
        0x60003824:    6812        .h      LDR      r2,[r2,#0]
        0x60003826:    6841        Ah      LDR      r1,[r0,#4]
        0x60003828:    4801        .H      LDR      r0,[pc,#4] ; [0x60003830] = 0x40184000
        0x6000382a:    4710        .G      BX       r2
    $d
        0x6000382c:    20000030    0..     DCD    536870960
        0x60003830:    40184000    .@.@    DCD    1075331072
        0x60003834:    2000000c    ...     DCD    536870924
    $t
    i.LPUART2_DriverIRQHandler
    LPUART2_DriverIRQHandler
        0x60003838:    4a04        .J      LDR      r2,[pc,#16] ; [0x6000384c] = 0x2000000c
        0x6000383a:    4802        .H      LDR      r0,[pc,#8] ; [0x60003844] = 0x20000030
        0x6000383c:    6812        .h      LDR      r2,[r2,#0]
        0x6000383e:    6881        .h      LDR      r1,[r0,#8]
        0x60003840:    4801        .H      LDR      r0,[pc,#4] ; [0x60003848] = 0x40188000
        0x60003842:    4710        .G      BX       r2
    $d
        0x60003844:    20000030    0..     DCD    536870960
        0x60003848:    40188000    ...@    DCD    1075347456
        0x6000384c:    2000000c    ...     DCD    536870924
    $t
    i.LPUART3_DriverIRQHandler
    LPUART3_DriverIRQHandler
        0x60003850:    4a04        .J      LDR      r2,[pc,#16] ; [0x60003864] = 0x2000000c
        0x60003852:    4802        .H      LDR      r0,[pc,#8] ; [0x6000385c] = 0x20000030
        0x60003854:    6812        .h      LDR      r2,[r2,#0]
        0x60003856:    68c1        .h      LDR      r1,[r0,#0xc]
        0x60003858:    4801        .H      LDR      r0,[pc,#4] ; [0x60003860] = 0x4018c000
        0x6000385a:    4710        .G      BX       r2
    $d
        0x6000385c:    20000030    0..     DCD    536870960
        0x60003860:    4018c000    ...@    DCD    1075363840
        0x60003864:    2000000c    ...     DCD    536870924
    $t
    i.LPUART4_DriverIRQHandler
    LPUART4_DriverIRQHandler
        0x60003868:    4a04        .J      LDR      r2,[pc,#16] ; [0x6000387c] = 0x2000000c
        0x6000386a:    4802        .H      LDR      r0,[pc,#8] ; [0x60003874] = 0x20000030
        0x6000386c:    6812        .h      LDR      r2,[r2,#0]
        0x6000386e:    6901        .i      LDR      r1,[r0,#0x10]
        0x60003870:    4801        .H      LDR      r0,[pc,#4] ; [0x60003878] = 0x40190000
        0x60003872:    4710        .G      BX       r2
    $d
        0x60003874:    20000030    0..     DCD    536870960
        0x60003878:    40190000    ...@    DCD    1075380224
        0x6000387c:    2000000c    ...     DCD    536870924
    $t
    i.LPUART5_DriverIRQHandler
    LPUART5_DriverIRQHandler
        0x60003880:    4a04        .J      LDR      r2,[pc,#16] ; [0x60003894] = 0x2000000c
        0x60003882:    4802        .H      LDR      r0,[pc,#8] ; [0x6000388c] = 0x20000030
        0x60003884:    6812        .h      LDR      r2,[r2,#0]
        0x60003886:    6941        Ai      LDR      r1,[r0,#0x14]
        0x60003888:    4801        .H      LDR      r0,[pc,#4] ; [0x60003890] = 0x40194000
        0x6000388a:    4710        .G      BX       r2
    $d
        0x6000388c:    20000030    0..     DCD    536870960
        0x60003890:    40194000    .@.@    DCD    1075396608
        0x60003894:    2000000c    ...     DCD    536870924
    $t
    i.LPUART6_DriverIRQHandler
    LPUART6_DriverIRQHandler
        0x60003898:    4a04        .J      LDR      r2,[pc,#16] ; [0x600038ac] = 0x2000000c
        0x6000389a:    4802        .H      LDR      r0,[pc,#8] ; [0x600038a4] = 0x20000030
        0x6000389c:    6812        .h      LDR      r2,[r2,#0]
        0x6000389e:    6981        .i      LDR      r1,[r0,#0x18]
        0x600038a0:    4801        .H      LDR      r0,[pc,#4] ; [0x600038a8] = 0x40198000
        0x600038a2:    4710        .G      BX       r2
    $d
        0x600038a4:    20000030    0..     DCD    536870960
        0x600038a8:    40198000    ...@    DCD    1075412992
        0x600038ac:    2000000c    ...     DCD    536870924
    $t
    i.LPUART7_DriverIRQHandler
    LPUART7_DriverIRQHandler
        0x600038b0:    4a04        .J      LDR      r2,[pc,#16] ; [0x600038c4] = 0x2000000c
        0x600038b2:    4802        .H      LDR      r0,[pc,#8] ; [0x600038bc] = 0x20000030
        0x600038b4:    6812        .h      LDR      r2,[r2,#0]
        0x600038b6:    69c1        .i      LDR      r1,[r0,#0x1c]
        0x600038b8:    4801        .H      LDR      r0,[pc,#4] ; [0x600038c0] = 0x4019c000
        0x600038ba:    4710        .G      BX       r2
    $d
        0x600038bc:    20000030    0..     DCD    536870960
        0x600038c0:    4019c000    ...@    DCD    1075429376
        0x600038c4:    2000000c    ...     DCD    536870924
    $t
    i.LPUART8_DriverIRQHandler
    LPUART8_DriverIRQHandler
        0x600038c8:    4a04        .J      LDR      r2,[pc,#16] ; [0x600038dc] = 0x2000000c
        0x600038ca:    4802        .H      LDR      r0,[pc,#8] ; [0x600038d4] = 0x20000030
        0x600038cc:    6812        .h      LDR      r2,[r2,#0]
        0x600038ce:    6a01        .j      LDR      r1,[r0,#0x20]
        0x600038d0:    4801        .H      LDR      r0,[pc,#4] ; [0x600038d8] = 0x401a0000
        0x600038d2:    4710        .G      BX       r2
    $d
        0x600038d4:    20000030    0..     DCD    536870960
        0x600038d8:    401a0000    ...@    DCD    1075445760
        0x600038dc:    2000000c    ...     DCD    536870924
    $t
    i.LPUART_ClearStatusFlags
    LPUART_ClearStatusFlags
        0x600038e0:    b5f0        ..      PUSH     {r4-r7,lr}
        0x600038e2:    460a        .F      MOV      r2,r1
        0x600038e4:    4f11        .O      LDR      r7,[pc,#68] ; [0x6000392c] = 0xbfe0ffff
        0x600038e6:    6a86        .j      LDR      r6,[r0,#0x28]
        0x600038e8:    f44f3140    O.@1    MOV      r1,#0x30000
        0x600038ec:    f0024500    ...E    AND      r5,r2,#0x80000000
        0x600038f0:    ea014302    ...C    AND      r3,r1,r2,LSL #16
        0x600038f4:    ea6f0c07    o...    MVN      r12,r7
        0x600038f8:    f4263640    &.@6    BIC      r6,r6,#0x30000
        0x600038fc:    4333        3C      ORRS     r3,r3,r6
        0x600038fe:    6283        .b      STR      r3,[r0,#0x28]
        0x60003900:    f4024440    ..@D    AND      r4,r2,#0xc000
        0x60003904:    ea02010c    ....    AND      r1,r2,r12
        0x60003908:    6943        Ci      LDR      r3,[r0,#0x14]
        0x6000390a:    f0234300    #..C    BIC      r3,r3,#0x80000000
        0x6000390e:    431d        .C      ORRS     r5,r5,r3
        0x60003910:    403d        =@      ANDS     r5,r5,r7
        0x60003912:    4329        )C      ORRS     r1,r1,r5
        0x60003914:    f4214140    !.@A    BIC      r1,r1,#0xc000
        0x60003918:    430c        .C      ORRS     r4,r4,r1
        0x6000391a:    6144        Da      STR      r4,[r0,#0x14]
        0x6000391c:    f000f834    ..4.    BL       LPUART_GetStatusFlags ; 0x60003988
        0x60003920:    4010        .@      ANDS     r0,r0,r2
        0x60003922:    d001        ..      BEQ      0x60003928 ; LPUART_ClearStatusFlags + 72
        0x60003924:    f240501a    @..P    MOV      r0,#0x51a
        0x60003928:    bdf0        ..      POP      {r4-r7,pc}
    $d
        0x6000392a:    0000        ..      DCW    0
        0x6000392c:    bfe0ffff    ....    DCD    3219193855
    $t
    i.LPUART_GetDefaultConfig
    LPUART_GetDefaultConfig
        0x60003930:    b510        ..      PUSH     {r4,lr}
        0x60003932:    b190        ..      CBZ      r0,0x6000395a ; LPUART_GetDefaultConfig + 42
        0x60003934:    f44f32e1    O..2    MOV      r2,#0x1c200
        0x60003938:    6002        .`      STR      r2,[r0,#0]
        0x6000393a:    2100        .!      MOVS     r1,#0
        0x6000393c:    7101        .q      STRB     r1,[r0,#4]
        0x6000393e:    7141        Aq      STRB     r1,[r0,#5]
        0x60003940:    7181        .q      STRB     r1,[r0,#6]
        0x60003942:    71c1        .q      STRB     r1,[r0,#7]
        0x60003944:    7201        .r      STRB     r1,[r0,#8]
        0x60003946:    7241        Ar      STRB     r1,[r0,#9]
        0x60003948:    7281        .r      STRB     r1,[r0,#0xa]
        0x6000394a:    72c1        .r      STRB     r1,[r0,#0xb]
        0x6000394c:    7341        As      STRB     r1,[r0,#0xd]
        0x6000394e:    7301        .s      STRB     r1,[r0,#0xc]
        0x60003950:    7381        .s      STRB     r1,[r0,#0xe]
        0x60003952:    73c1        .s      STRB     r1,[r0,#0xf]
        0x60003954:    7401        .t      STRB     r1,[r0,#0x10]
        0x60003956:    7441        At      STRB     r1,[r0,#0x11]
        0x60003958:    bd10        ..      POP      {r4,pc}
        0x6000395a:    f3af8000    ....    NOP.W    
        0x6000395e:    0000        ..      MOVS     r0,r0
    i.LPUART_GetInstance
    LPUART_GetInstance
        0x60003960:    4a08        .J      LDR      r2,[pc,#32] ; [0x60003984] = 0x600050e0
        0x60003962:    4601        .F      MOV      r1,r0
        0x60003964:    2000        .       MOVS     r0,#0
        0x60003966:    b510        ..      PUSH     {r4,lr}
        0x60003968:    f8523020    R. 0    LDR      r3,[r2,r0,LSL #2]
        0x6000396c:    428b        .B      CMP      r3,r1
        0x6000396e:    d003        ..      BEQ      0x60003978 ; LPUART_GetInstance + 24
        0x60003970:    1c40        @.      ADDS     r0,r0,#1
        0x60003972:    2809        .(      CMP      r0,#9
        0x60003974:    d3f8        ..      BCC      0x60003968 ; LPUART_GetInstance + 8
        0x60003976:    e001        ..      B        0x6000397c ; LPUART_GetInstance + 28
        0x60003978:    2809        .(      CMP      r0,#9
        0x6000397a:    d301        ..      BCC      0x60003980 ; LPUART_GetInstance + 32
        0x6000397c:    f3af8000    ....    NOP.W    
        0x60003980:    bd10        ..      POP      {r4,pc}
    $d
        0x60003982:    0000        ..      DCW    0
        0x60003984:    600050e0    .P.`    DCD    1610633440
    $t
    i.LPUART_GetStatusFlags
    LPUART_GetStatusFlags
        0x60003988:    6941        Ai      LDR      r1,[r0,#0x14]
        0x6000398a:    6a80        .j      LDR      r0,[r0,#0x28]
        0x6000398c:    f4000043    ..C.    AND      r0,r0,#0xc30000
        0x60003990:    ea414010    A..@    ORR      r0,r1,r0,LSR #16
        0x60003994:    4770        pG      BX       lr
        0x60003996:    0000        ..      MOVS     r0,r0
    i.LPUART_Init
    LPUART_Init
        0x60003998:    e92d5ff0    -.._    PUSH     {r4-r12,lr}
        0x6000399c:    000d        ..      MOVS     r5,r1
        0x6000399e:    4604        .F      MOV      r4,r0
        0x600039a0:    d007        ..      BEQ      0x600039b2 ; LPUART_Init + 26
        0x600039a2:    682b        +h      LDR      r3,[r5,#0]
        0x600039a4:    b12b        +.      CBZ      r3,0x600039b2 ; LPUART_Init + 26
        0x600039a6:    7a28        (z      LDRB     r0,[r5,#8]
        0x600039a8:    2804        .(      CMP      r0,#4
        0x600039aa:    d802        ..      BHI      0x600039b2 ; LPUART_Init + 26
        0x600039ac:    7a68        hz      LDRB     r0,[r5,#9]
        0x600039ae:    2804        .(      CMP      r0,#4
        0x600039b0:    d901        ..      BLS      0x600039b6 ; LPUART_Init + 30
        0x600039b2:    f3af8000    ....    NOP.W    
        0x600039b6:    2700        .'      MOVS     r7,#0
        0x600039b8:    4619        .F      MOV      r1,r3
        0x600039ba:    f05f0604    _...    MOVS.W   r6,#4
        0x600039be:    46ba        .F      MOV      r10,r7
        0x600039c0:    fb03f006    ....    MUL      r0,r3,r6
        0x600039c4:    fbb2f0f0    ....    UDIV     r0,r2,r0
        0x600039c8:    0400        ..      LSLS     r0,r0,#16
        0x600039ca:    0c00        ..      LSRS     r0,r0,#16
        0x600039cc:    d100        ..      BNE      0x600039d0 ; LPUART_Init + 56
        0x600039ce:    2001        .       MOVS     r0,#1
        0x600039d0:    f1000901    ....    ADD      r9,r0,#1
        0x600039d4:    46cb        .F      MOV      r11,r9
        0x600039d6:    fb06fc00    ....    MUL      r12,r6,r0
        0x600039da:    fb09f906    ....    MUL      r9,r9,r6
        0x600039de:    fbb2fcfc    ....    UDIV     r12,r2,r12
        0x600039e2:    fbb2f8f9    ....    UDIV     r8,r2,r9
        0x600039e6:    ebac0c03    ....    SUB      r12,r12,r3
        0x600039ea:    eba30808    ....    SUB      r8,r3,r8
        0x600039ee:    45e0        .E      CMP      r8,r12
        0x600039f0:    d205        ..      BCS      0x600039fe ; LPUART_Init + 102
        0x600039f2:    fbb2fcf9    ....    UDIV     r12,r2,r9
        0x600039f6:    fa1ff08b    ....    UXTH     r0,r11
        0x600039fa:    eba30c0c    ....    SUB      r12,r3,r12
        0x600039fe:    458c        .E      CMP      r12,r1
        0x60003a00:    d802        ..      BHI      0x60003a08 ; LPUART_Init + 112
        0x60003a02:    4661        aF      MOV      r1,r12
        0x60003a04:    4637        7F      MOV      r7,r6
        0x60003a06:    4682        .F      MOV      r10,r0
        0x60003a08:    1c76        v.      ADDS     r6,r6,#1
        0x60003a0a:    2e20         .      CMP      r6,#0x20
        0x60003a0c:    d9d8        ..      BLS      0x600039c0 ; LPUART_Init + 40
        0x60003a0e:    2064        d       MOVS     r0,#0x64
        0x60003a10:    fbb3f0f0    ....    UDIV     r0,r3,r0
        0x60003a14:    eb000040    ..@.    ADD      r0,r0,r0,LSL #1
        0x60003a18:    4288        .B      CMP      r0,r1
        0x60003a1a:    d203        ..      BCS      0x60003a24 ; LPUART_Init + 140
        0x60003a1c:    f2405021    @.!P    MOV      r0,#0x521
        0x60003a20:    e8bd9ff0    ....    POP      {r4-r12,pc}
        0x60003a24:    4620         F      MOV      r0,r4
        0x60003a26:    f7ffff9b    ....    BL       LPUART_GetInstance ; 0x60003960
        0x60003a2a:    4945        EI      LDR      r1,[pc,#276] ; [0x60003b40] = 0x60005116
        0x60003a2c:    f9310010    1...    LDRSH    r0,[r1,r0,LSL #1]
        0x60003a30:    2103        .!      MOVS     r1,#3
        0x60003a32:    f7fff9cd    ....    BL       CLOCK_ControlGate ; 0x60002dd0
        0x60003a36:    68a0        .h      LDR      r0,[r4,#8]
        0x60003a38:    f0400002    @...    ORR      r0,r0,#2
        0x60003a3c:    60a0        .`      STR      r0,[r4,#8]
        0x60003a3e:    68a0        .h      LDR      r0,[r4,#8]
        0x60003a40:    f0200002     ...    BIC      r0,r0,#2
        0x60003a44:    60a0        .`      STR      r0,[r4,#8]
        0x60003a46:    6920         i      LDR      r0,[r4,#0x10]
        0x60003a48:    1f39        9.      SUBS     r1,r7,#4
        0x60003a4a:    2904        .)      CMP      r1,#4
        0x60003a4c:    d201        ..      BCS      0x60003a52 ; LPUART_Init + 186
        0x60003a4e:    f4403000    @..0    ORR      r0,r0,#0x20000
        0x60003a52:    f04f0c04    O...    MOV      r12,#4
        0x60003a56:    1e7f        ..      SUBS     r7,r7,#1
        0x60003a58:    f04f52f8    O..R    MOV      r2,#0x1f000000
        0x60003a5c:    f02053f8     ..S    BIC      r3,r0,#0x1f000000
        0x60003a60:    ea026007    ...`    AND      r0,r2,r7,LSL #24
        0x60003a64:    f2407217    @..r    MOV      r2,#0x717
        0x60003a68:    4318        .C      ORRS     r0,r0,r3
        0x60003a6a:    f3ca010c    ....    UBFX     r1,r10,#0,#13
        0x60003a6e:    f36f000c    o...    BFC      r0,#0,#13
        0x60003a72:    4301        .C      ORRS     r1,r1,r0
        0x60003a74:    6121        !a      STR      r1,[r4,#0x10]
        0x60003a76:    f44f66e0    O..f    MOV      r6,#0x700
        0x60003a7a:    6920         i      LDR      r0,[r4,#0x10]
        0x60003a7c:    f0205000     ..P    BIC      r0,r0,#0x20000000
        0x60003a80:    6120         a      STR      r0,[r4,#0x10]
        0x60003a82:    69a1        .i      LDR      r1,[r4,#0x18]
        0x60003a84:    7beb        .{      LDRB     r3,[r5,#0xf]
        0x60003a86:    7baf        .{      LDRB     r7,[r5,#0xe]
        0x60003a88:    4391        .C      BICS     r1,r1,r2
        0x60003a8a:    7928        (y      LDRB     r0,[r5,#4]
        0x60003a8c:    ea062203    ..."    AND      r2,r6,r3,LSL #8
        0x60003a90:    f8958005    ....    LDRB     r8,[r5,#5]
        0x60003a94:    ea0c0387    ....    AND      r3,r12,r7,LSL #2
        0x60003a98:    4301        .C      ORRS     r1,r1,r0
        0x60003a9a:    431a        .C      ORRS     r2,r2,r3
        0x60003a9c:    f1b80f01    ....    CMP      r8,#1
        0x60003aa0:    ea420201    B...    ORR      r2,r2,r1
        0x60003aa4:    d045        E.      BEQ      0x60003b32 ; LPUART_Init + 410
        0x60003aa6:    b108        ..      CBZ      r0,0x60003aac ; LPUART_Init + 276
        0x60003aa8:    f0420210    B...    ORR      r2,r2,#0x10
        0x60003aac:    61a2        .a      STR      r2,[r4,#0x18]
        0x60003aae:    6921        !i      LDR      r1,[r4,#0x10]
        0x60003ab0:    f44f5700    O..W    MOV      r7,#0x2000
        0x60003ab4:    79ee        .y      LDRB     r6,[r5,#7]
        0x60003ab6:    2310        .#      MOVS     r3,#0x10
        0x60003ab8:    4822        "H      LDR      r0,[pc,#136] ; [0x60003b44] = 0xc01fc000
        0x60003aba:    2220         "      MOVS     r2,#0x20
        0x60003abc:    f4215100    !..Q    BIC      r1,r1,#0x2000
        0x60003ac0:    ea073646    ..F6    AND      r6,r7,r6,LSL #13
        0x60003ac4:    430e        .C      ORRS     r6,r6,r1
        0x60003ac6:    6126        &a      STR      r6,[r4,#0x10]
        0x60003ac8:    7a6e        nz      LDRB     r6,[r5,#9]
        0x60003aca:    7a29        )z      LDRB     r1,[r5,#8]
        0x60003acc:    ea414106    A..A    ORR      r1,r1,r6,LSL #16
        0x60003ad0:    62e1        .b      STR      r1,[r4,#0x2c]
        0x60003ad2:    6aa1        .j      LDR      r1,[r4,#0x28]
        0x60003ad4:    f0410188    A...    ORR      r1,r1,#0x88
        0x60003ad8:    62a1        .b      STR      r1,[r4,#0x28]
        0x60003ada:    6aa1        .j      LDR      r1,[r4,#0x28]
        0x60003adc:    f4414140    A.@A    ORR      r1,r1,#0xc000
        0x60003ae0:    62a1        .b      STR      r1,[r4,#0x28]
        0x60003ae2:    6a66        fj      LDR      r6,[r4,#0x24]
        0x60003ae4:    7b69        i{      LDRB     r1,[r5,#0xd]
        0x60003ae6:    7b2f        /{      LDRB     r7,[r5,#0xc]
        0x60003ae8:    ea031101    ....    AND      r1,r3,r1,LSL #4
        0x60003aec:    ea021247    ..G.    AND      r2,r2,r7,LSL #5
        0x60003af0:    4311        .C      ORRS     r1,r1,r2
        0x60003af2:    4331        1C      ORRS     r1,r1,r6
        0x60003af4:    6261        ab      STR      r1,[r4,#0x24]
        0x60003af6:    7aa9        .z      LDRB     r1,[r5,#0xa]
        0x60003af8:    b119        ..      CBZ      r1,0x60003b02 ; LPUART_Init + 362
        0x60003afa:    6a61        aj      LDR      r1,[r4,#0x24]
        0x60003afc:    f0410108    A...    ORR      r1,r1,#8
        0x60003b00:    6261        ab      STR      r1,[r4,#0x24]
        0x60003b02:    7ae9        .z      LDRB     r1,[r5,#0xb]
        0x60003b04:    b119        ..      CBZ      r1,0x60003b0e ; LPUART_Init + 374
        0x60003b06:    6a61        aj      LDR      r1,[r4,#0x24]
        0x60003b08:    f0410101    A...    ORR      r1,r1,#1
        0x60003b0c:    6261        ab      STR      r1,[r4,#0x24]
        0x60003b0e:    79a9        .y      LDRB     r1,[r5,#6]
        0x60003b10:    b101        ..      CBZ      r1,0x60003b14 ; LPUART_Init + 380
        0x60003b12:    480d        .H      LDR      r0,[pc,#52] ; [0x60003b48] = 0xe01fc000
        0x60003b14:    6961        ai      LDR      r1,[r4,#0x14]
        0x60003b16:    4301        .C      ORRS     r1,r1,r0
        0x60003b18:    6161        aa      STR      r1,[r4,#0x14]
        0x60003b1a:    69a0        .i      LDR      r0,[r4,#0x18]
        0x60003b1c:    7c29        )|      LDRB     r1,[r5,#0x10]
        0x60003b1e:    b109        ..      CBZ      r1,0x60003b24 ; LPUART_Init + 396
        0x60003b20:    f4402000    @..     ORR      r0,r0,#0x80000
        0x60003b24:    7c69        i|      LDRB     r1,[r5,#0x11]
        0x60003b26:    b109        ..      CBZ      r1,0x60003b2c ; LPUART_Init + 404
        0x60003b28:    f4402080    @..     ORR      r0,r0,#0x40000
        0x60003b2c:    61a0        .a      STR      r0,[r4,#0x18]
        0x60003b2e:    2000        .       MOVS     r0,#0
        0x60003b30:    e776        v.      B        0x60003a20 ; LPUART_Init + 136
        0x60003b32:    b110        ..      CBZ      r0,0x60003b3a ; LPUART_Init + 418
        0x60003b34:    f4226200    "..b    BIC      r2,r2,#0x800
        0x60003b38:    e7b8        ..      B        0x60003aac ; LPUART_Init + 276
        0x60003b3a:    f4426200    B..b    ORR      r2,r2,#0x800
        0x60003b3e:    e7b5        ..      B        0x60003aac ; LPUART_Init + 276
    $d
        0x60003b40:    60005116    .Q.`    DCD    1610633494
        0x60003b44:    c01fc000    ....    DCD    3223306240
        0x60003b48:    e01fc000    ....    DCD    3760177152
    $t
    i.LPUART_ReadBlocking
    LPUART_ReadBlocking
        0x60003b4c:    b570        p.      PUSH     {r4-r6,lr}
        0x60003b4e:    000b        ..      MOVS     r3,r1
        0x60003b50:    4604        .F      MOV      r4,r0
        0x60003b52:    d006        ..      BEQ      0x60003b62 ; LPUART_ReadBlocking + 22
        0x60003b54:    69a0        .i      LDR      r0,[r4,#0x18]
        0x60003b56:    0501        ..      LSLS     r1,r0,#20
        0x60003b58:    d407        ..      BMI      0x60003b6a ; LPUART_ReadBlocking + 30
        0x60003b5a:    f4106f01    ...o    TST      r0,#0x810
        0x60003b5e:    d002        ..      BEQ      0x60003b66 ; LPUART_ReadBlocking + 26
        0x60003b60:    e005        ..      B        0x60003b6e ; LPUART_ReadBlocking + 34
        0x60003b62:    f3af8000    ....    NOP.W    
        0x60003b66:    0780        ..      LSLS     r0,r0,#30
        0x60003b68:    d501        ..      BPL      0x60003b6e ; LPUART_ReadBlocking + 34
        0x60003b6a:    2501        .%      MOVS     r5,#1
        0x60003b6c:    e036        6.      B        0x60003bdc ; LPUART_ReadBlocking + 144
        0x60003b6e:    2500        .%      MOVS     r5,#0
        0x60003b70:    e034        4.      B        0x60003bdc ; LPUART_ReadBlocking + 144
        0x60003b72:    4620         F      MOV      r0,r4
        0x60003b74:    f7ffff08    ....    BL       LPUART_GetStatusFlags ; 0x60003988
        0x60003b78:    0301        ..      LSLS     r1,r0,#12
        0x60003b7a:    d507        ..      BPL      0x60003b8c ; LPUART_ReadBlocking + 64
        0x60003b7c:    f44f2100    O..!    MOV      r1,#0x80000
        0x60003b80:    4620         F      MOV      r0,r4
        0x60003b82:    f7fffead    ....    BL       LPUART_ClearStatusFlags ; 0x600038e0
        0x60003b86:    f240501d    @..P    MOV      r0,#0x51d
        0x60003b8a:    bd70        p.      POP      {r4-r6,pc}
        0x60003b8c:    0341        A.      LSLS     r1,r0,#13
        0x60003b8e:    d507        ..      BPL      0x60003ba0 ; LPUART_ReadBlocking + 84
        0x60003b90:    f44f2180    O..!    MOV      r1,#0x40000
        0x60003b94:    4620         F      MOV      r0,r4
        0x60003b96:    f7fffea3    ....    BL       LPUART_ClearStatusFlags ; 0x600038e0
        0x60003b9a:    f240501e    @..P    MOV      r0,#0x51e
        0x60003b9e:    bd70        p.      POP      {r4-r6,pc}
        0x60003ba0:    0381        ..      LSLS     r1,r0,#14
        0x60003ba2:    d507        ..      BPL      0x60003bb4 ; LPUART_ReadBlocking + 104
        0x60003ba4:    f44f3100    O..1    MOV      r1,#0x20000
        0x60003ba8:    4620         F      MOV      r0,r4
        0x60003baa:    f7fffe99    ....    BL       LPUART_ClearStatusFlags ; 0x600038e0
        0x60003bae:    f240501f    @..P    MOV      r0,#0x51f
        0x60003bb2:    bd70        p.      POP      {r4-r6,pc}
        0x60003bb4:    03c0        ..      LSLS     r0,r0,#15
        0x60003bb6:    d507        ..      BPL      0x60003bc8 ; LPUART_ReadBlocking + 124
        0x60003bb8:    f44f3180    O..1    MOV      r1,#0x10000
        0x60003bbc:    4620         F      MOV      r0,r4
        0x60003bbe:    f7fffe8f    ....    BL       LPUART_ClearStatusFlags ; 0x600038e0
        0x60003bc2:    f44f60a4    O..`    MOV      r0,#0x520
        0x60003bc6:    bd70        p.      POP      {r4-r6,pc}
        0x60003bc8:    6ae0        .j      LDR      r0,[r4,#0x2c]
        0x60003bca:    f0106fe0    ...o    TST      r0,#0x7000000
        0x60003bce:    d0d0        ..      BEQ      0x60003b72 ; LPUART_ReadBlocking + 38
        0x60003bd0:    69e0        .i      LDR      r0,[r4,#0x1c]
        0x60003bd2:    b10d        ..      CBZ      r5,0x60003bd8 ; LPUART_ReadBlocking + 140
        0x60003bd4:    f000007f    ....    AND      r0,r0,#0x7f
        0x60003bd8:    f8030b01    ....    STRB     r0,[r3],#1
        0x60003bdc:    4610        .F      MOV      r0,r2
        0x60003bde:    1e52        R.      SUBS     r2,r2,#1
        0x60003be0:    d2f2        ..      BCS      0x60003bc8 ; LPUART_ReadBlocking + 124
        0x60003be2:    bd70        p.      POP      {r4-r6,pc}
    i.LPUART_WriteBlocking
    LPUART_WriteBlocking
        0x60003be4:    b510        ..      PUSH     {r4,lr}
        0x60003be6:    b939        9.      CBNZ     r1,0x60003bf8 ; LPUART_WriteBlocking + 20
        0x60003be8:    f3af8000    ....    NOP.W    
        0x60003bec:    6943        Ci      LDR      r3,[r0,#0x14]
        0x60003bee:    021b        ..      LSLS     r3,r3,#8
        0x60003bf0:    d5fc        ..      BPL      0x60003bec ; LPUART_WriteBlocking + 8
        0x60003bf2:    f8113b01    ...;    LDRB     r3,[r1],#1
        0x60003bf6:    61c3        .a      STR      r3,[r0,#0x1c]
        0x60003bf8:    1e52        R.      SUBS     r2,r2,#1
        0x60003bfa:    d2f7        ..      BCS      0x60003bec ; LPUART_WriteBlocking + 8
        0x60003bfc:    bd10        ..      POP      {r4,pc}
        0x60003bfe:    0000        ..      MOVS     r0,r0
    i.StrFormatPrintf
    StrFormatPrintf
        0x60003c00:    e92d4fff    -..O    PUSH     {r0-r11,lr}
        0x60003c04:    b09b        ..      SUB      sp,sp,#0x6c
        0x60003c06:    461e        .F      MOV      r6,r3
        0x60003c08:    2200        ."      MOVS     r2,#0
        0x60003c0a:    468a        .F      MOV      r10,r1
        0x60003c0c:    4605        .F      MOV      r5,r0
        0x60003c0e:    9206        ..      STR      r2,[sp,#0x18]
        0x60003c10:    e9cd2208    ..."    STRD     r2,r2,[sp,#0x20]
        0x60003c14:    e259        Y.      B        0x600040ca ; StrFormatPrintf + 1226
        0x60003c16:    2a25        %*      CMP      r2,#0x25
        0x60003c18:    d001        ..      BEQ      0x60003c1e ; StrFormatPrintf + 30
        0x60003c1a:    2301        .#      MOVS     r3,#1
        0x60003c1c:    e21c        ..      B        0x60004058 ; StrFormatPrintf + 1112
        0x60003c1e:    2400        .$      MOVS     r4,#0
        0x60003c20:    f04f0b01    O...    MOV      r11,#1
        0x60003c24:    f8150f01    ....    LDRB     r0,[r5,#1]!
        0x60003c28:    282b        +(      CMP      r0,#0x2b
        0x60003c2a:    d01d        ..      BEQ      0x60003c68 ; StrFormatPrintf + 104
        0x60003c2c:    dc04        ..      BGT      0x60003c38 ; StrFormatPrintf + 56
        0x60003c2e:    2820         (      CMP      r0,#0x20
        0x60003c30:    d01d        ..      BEQ      0x60003c6e ; StrFormatPrintf + 110
        0x60003c32:    2823        #(      CMP      r0,#0x23
        0x60003c34:    d104        ..      BNE      0x60003c40 ; StrFormatPrintf + 64
        0x60003c36:    e020         .      B        0x60003c7a ; StrFormatPrintf + 122
        0x60003c38:    282d        -(      CMP      r0,#0x2d
        0x60003c3a:    d012        ..      BEQ      0x60003c62 ; StrFormatPrintf + 98
        0x60003c3c:    2830        0(      CMP      r0,#0x30
        0x60003c3e:    d019        ..      BEQ      0x60003c74 ; StrFormatPrintf + 116
        0x60003c40:    f1b50501    ....    SUBS.W   r5,r5,#1
        0x60003c44:    f04f0800    O...    MOV      r8,#0
        0x60003c48:    f8150f01    ....    LDRB     r0,[r5,#1]!
        0x60003c4c:    f1a00130    ..0.    SUB      r1,r0,#0x30
        0x60003c50:    2909        .)      CMP      r1,#9
        0x60003c52:    d815        ..      BHI      0x60003c80 ; StrFormatPrintf + 128
        0x60003c54:    eb080188    ....    ADD      r1,r8,r8,LSL #2
        0x60003c58:    eb000041    ..A.    ADD      r0,r0,r1,LSL #1
        0x60003c5c:    f1a00830    ..0.    SUB      r8,r0,#0x30
        0x60003c60:    e7f2        ..      B        0x60003c48 ; StrFormatPrintf + 72
        0x60003c62:    f0440401    D...    ORR      r4,r4,#1
        0x60003c66:    e7dd        ..      B        0x60003c24 ; StrFormatPrintf + 36
        0x60003c68:    f0440402    D...    ORR      r4,r4,#2
        0x60003c6c:    e7da        ..      B        0x60003c24 ; StrFormatPrintf + 36
        0x60003c6e:    f0440404    D...    ORR      r4,r4,#4
        0x60003c72:    e7d7        ..      B        0x60003c24 ; StrFormatPrintf + 36
        0x60003c74:    f0440408    D...    ORR      r4,r4,#8
        0x60003c78:    e7d4        ..      B        0x60003c24 ; StrFormatPrintf + 36
        0x60003c7a:    f0440410    D...    ORR      r4,r4,#0x10
        0x60003c7e:    e7d1        ..      B        0x60003c24 ; StrFormatPrintf + 36
        0x60003c80:    282a        *(      CMP      r0,#0x2a
        0x60003c82:    d007        ..      BEQ      0x60003c94 ; StrFormatPrintf + 148
        0x60003c84:    2000        .       MOVS     r0,#0
        0x60003c86:    9018        ..      STR      r0,[sp,#0x60]
        0x60003c88:    7828        (x      LDRB     r0,[r5,#0]
        0x60003c8a:    f04f0906    O...    MOV      r9,#6
        0x60003c8e:    282e        .(      CMP      r0,#0x2e
        0x60003c90:    d003        ..      BEQ      0x60003c9a ; StrFormatPrintf + 154
        0x60003c92:    e016        ..      B        0x60003cc2 ; StrFormatPrintf + 194
        0x60003c94:    f85a8b04    Z...    LDR      r8,[r10],#4
        0x60003c98:    e7d6        ..      B        0x60003c48 ; StrFormatPrintf + 72
        0x60003c9a:    2000        .       MOVS     r0,#0
        0x60003c9c:    e00d        ..      B        0x60003cba ; StrFormatPrintf + 186
        0x60003c9e:    bf00        ..      NOP      
        0x60003ca0:    f8150f01    ....    LDRB     r0,[r5,#1]!
        0x60003ca4:    f1a00130    ..0.    SUB      r1,r0,#0x30
        0x60003ca8:    2909        .)      CMP      r1,#9
        0x60003caa:    d808        ..      BHI      0x60003cbe ; StrFormatPrintf + 190
        0x60003cac:    eb090289    ....    ADD      r2,r9,r9,LSL #2
        0x60003cb0:    2101        .!      MOVS     r1,#1
        0x60003cb2:    9118        ..      STR      r1,[sp,#0x60]
        0x60003cb4:    eb000042    ..B.    ADD      r0,r0,r2,LSL #1
        0x60003cb8:    3830        08      SUBS     r0,r0,#0x30
        0x60003cba:    4681        .F      MOV      r9,r0
        0x60003cbc:    e7f0        ..      B        0x60003ca0 ; StrFormatPrintf + 160
        0x60003cbe:    282a        *(      CMP      r0,#0x2a
        0x60003cc0:    d007        ..      BEQ      0x60003cd2 ; StrFormatPrintf + 210
        0x60003cc2:    1e6d        m.      SUBS     r5,r5,#1
        0x60003cc4:    f8150f01    ....    LDRB     r0,[r5,#1]!
        0x60003cc8:    2868        h(      CMP      r0,#0x68
        0x60003cca:    d007        ..      BEQ      0x60003cdc ; StrFormatPrintf + 220
        0x60003ccc:    286c        l(      CMP      r0,#0x6c
        0x60003cce:    d115        ..      BNE      0x60003cfc ; StrFormatPrintf + 252
        0x60003cd0:    e00e        ..      B        0x60003cf0 ; StrFormatPrintf + 240
        0x60003cd2:    2001        .       MOVS     r0,#1
        0x60003cd4:    9018        ..      STR      r0,[sp,#0x60]
        0x60003cd6:    f85a9b04    Z...    LDR      r9,[r10],#4
        0x60003cda:    e7e1        ..      B        0x60003ca0 ; StrFormatPrintf + 160
        0x60003cdc:    f8150f01    ....    LDRB     r0,[r5,#1]!
        0x60003ce0:    2868        h(      CMP      r0,#0x68
        0x60003ce2:    d002        ..      BEQ      0x60003cea ; StrFormatPrintf + 234
        0x60003ce4:    f0440440    D.@.    ORR      r4,r4,#0x40
        0x60003ce8:    e008        ..      B        0x60003cfc ; StrFormatPrintf + 252
        0x60003cea:    f0440420    D. .    ORR      r4,r4,#0x20
        0x60003cee:    e009        ..      B        0x60003d04 ; StrFormatPrintf + 260
        0x60003cf0:    f8150f01    ....    LDRB     r0,[r5,#1]!
        0x60003cf4:    286c        l(      CMP      r0,#0x6c
        0x60003cf6:    d003        ..      BEQ      0x60003d00 ; StrFormatPrintf + 256
        0x60003cf8:    f0440480    D...    ORR      r4,r4,#0x80
        0x60003cfc:    1e6d        m.      SUBS     r5,r5,#1
        0x60003cfe:    e001        ..      B        0x60003d04 ; StrFormatPrintf + 260
        0x60003d00:    f4447480    D..t    ORR      r4,r4,#0x100
        0x60003d04:    f8150f01    ....    LDRB     r0,[r5,#1]!
        0x60003d08:    9007        ..      STR      r0,[sp,#0x1c]
        0x60003d0a:    2864        d(      CMP      r0,#0x64
        0x60003d0c:    d017        ..      BEQ      0x60003d3e ; StrFormatPrintf + 318
        0x60003d0e:    2869        i(      CMP      r0,#0x69
        0x60003d10:    d015        ..      BEQ      0x60003d3e ; StrFormatPrintf + 318
        0x60003d12:    2866        f(      CMP      r0,#0x66
        0x60003d14:    d06d        m.      BEQ      0x60003df2 ; StrFormatPrintf + 498
        0x60003d16:    2846        F(      CMP      r0,#0x46
        0x60003d18:    d06b        k.      BEQ      0x60003df2 ; StrFormatPrintf + 498
        0x60003d1a:    2878        x(      CMP      r0,#0x78
        0x60003d1c:    d07d        }.      BEQ      0x60003e1a ; StrFormatPrintf + 538
        0x60003d1e:    2858        X(      CMP      r0,#0x58
        0x60003d20:    d07c        |.      BEQ      0x60003e1c ; StrFormatPrintf + 540
        0x60003d22:    286f        o(      CMP      r0,#0x6f
        0x60003d24:    d07b        {.      BEQ      0x60003e1e ; StrFormatPrintf + 542
        0x60003d26:    2862        b(      CMP      r0,#0x62
        0x60003d28:    d0fc        ..      BEQ      0x60003d24 ; StrFormatPrintf + 292
        0x60003d2a:    2870        p(      CMP      r0,#0x70
        0x60003d2c:    d0fa        ..      BEQ      0x60003d24 ; StrFormatPrintf + 292
        0x60003d2e:    2875        u(      CMP      r0,#0x75
        0x60003d30:    d0f8        ..      BEQ      0x60003d24 ; StrFormatPrintf + 292
        0x60003d32:    2863        c(      CMP      r0,#0x63
        0x60003d34:    d074        t.      BEQ      0x60003e20 ; StrFormatPrintf + 544
        0x60003d36:    2873        s(      CMP      r0,#0x73
        0x60003d38:    d073        s.      BEQ      0x60003e22 ; StrFormatPrintf + 546
        0x60003d3a:    4602        .F      MOV      r2,r0
        0x60003d3c:    e76d        m.      B        0x60003c1a ; StrFormatPrintf + 26
        0x60003d3e:    05e0        ..      LSLS     r0,r4,#23
        0x60003d40:    d508        ..      BPL      0x60003d54 ; StrFormatPrintf + 340
        0x60003d42:    f10a0007    ....    ADD      r0,r10,#7
        0x60003d46:    f0200007     ...    BIC      r0,r0,#7
        0x60003d4a:    f1000a08    ....    ADD      r10,r0,#8
        0x60003d4e:    e9d01000    ....    LDRD     r1,r0,[r0,#0]
        0x60003d52:    e002        ..      B        0x60003d5a ; StrFormatPrintf + 346
        0x60003d54:    f85a1b04    Z...    LDR      r1,[r10],#4
        0x60003d58:    17c8        ..      ASRS     r0,r1,#31
        0x60003d5a:    f8cdb000    ....    STR      r11,[sp,#0]
        0x60003d5e:    230a        .#      MOVS     r3,#0xa
        0x60003d60:    2201        ."      MOVS     r2,#1
        0x60003d62:    e9cd1016    ....    STRD     r1,r0,[sp,#0x58]
        0x60003d66:    a916        ..      ADD      r1,sp,#0x58
        0x60003d68:    a80a        ..      ADD      r0,sp,#0x28
        0x60003d6a:    f7fffb57    ..W.    BL       ConvertRadixNumToString ; 0x6000341c
        0x60003d6e:    9917        ..      LDR      r1,[sp,#0x5c]
        0x60003d70:    aa0a        ..      ADD      r2,sp,#0x28
        0x60003d72:    1817        ..      ADDS     r7,r2,r0
        0x60003d74:    9003        ..      STR      r0,[sp,#0xc]
        0x60003d76:    2900        .)      CMP      r1,#0
        0x60003d78:    da03        ..      BGE      0x60003d82 ; StrFormatPrintf + 386
        0x60003d7a:    1c40        @.      ADDS     r0,r0,#1
        0x60003d7c:    9003        ..      STR      r0,[sp,#0xc]
        0x60003d7e:    202d        -       MOVS     r0,#0x2d
        0x60003d80:    e00e        ..      B        0x60003da0 ; StrFormatPrintf + 416
        0x60003d82:    07a0        ..      LSLS     r0,r4,#30
        0x60003d84:    d504        ..      BPL      0x60003d90 ; StrFormatPrintf + 400
        0x60003d86:    9803        ..      LDR      r0,[sp,#0xc]
        0x60003d88:    1c40        @.      ADDS     r0,r0,#1
        0x60003d8a:    9003        ..      STR      r0,[sp,#0xc]
        0x60003d8c:    202b        +       MOVS     r0,#0x2b
        0x60003d8e:    e007        ..      B        0x60003da0 ; StrFormatPrintf + 416
        0x60003d90:    0760        `.      LSLS     r0,r4,#29
        0x60003d92:    d504        ..      BPL      0x60003d9e ; StrFormatPrintf + 414
        0x60003d94:    9803        ..      LDR      r0,[sp,#0xc]
        0x60003d96:    1c40        @.      ADDS     r0,r0,#1
        0x60003d98:    9003        ..      STR      r0,[sp,#0xc]
        0x60003d9a:    2020                MOVS     r0,#0x20
        0x60003d9c:    e000        ..      B        0x60003da0 ; StrFormatPrintf + 416
        0x60003d9e:    2000        .       MOVS     r0,#0
        0x60003da0:    9000        ..      STR      r0,[sp,#0]
        0x60003da2:    0720         .      LSLS     r0,r4,#28
        0x60003da4:    d510        ..      BPL      0x60003dc8 ; StrFormatPrintf + 456
        0x60003da6:    9800        ..      LDR      r0,[sp,#0]
        0x60003da8:    b120         .      CBZ      r0,0x60003db4 ; StrFormatPrintf + 436
        0x60003daa:    2301        .#      MOVS     r3,#1
        0x60003dac:    4602        .F      MOV      r2,r0
        0x60003dae:    a906        ..      ADD      r1,sp,#0x18
        0x60003db0:    981d        ..      LDR      r0,[sp,#0x74]
        0x60003db2:    47b0        .G      BLX      r6
        0x60003db4:    9903        ..      LDR      r1,[sp,#0xc]
        0x60003db6:    2230        0"      MOVS     r2,#0x30
        0x60003db8:    981d        ..      LDR      r0,[sp,#0x74]
        0x60003dba:    eba80301    ....    SUB      r3,r8,r1
        0x60003dbe:    a906        ..      ADD      r1,sp,#0x18
        0x60003dc0:    47b0        .G      BLX      r6
        0x60003dc2:    f8cd800c    ....    STR      r8,[sp,#0xc]
        0x60003dc6:    e00f        ..      B        0x60003de8 ; StrFormatPrintf + 488
        0x60003dc8:    07e0        ..      LSLS     r0,r4,#31
        0x60003dca:    d106        ..      BNE      0x60003dda ; StrFormatPrintf + 474
        0x60003dcc:    9903        ..      LDR      r1,[sp,#0xc]
        0x60003dce:    2220         "      MOVS     r2,#0x20
        0x60003dd0:    981d        ..      LDR      r0,[sp,#0x74]
        0x60003dd2:    eba80301    ....    SUB      r3,r8,r1
        0x60003dd6:    a906        ..      ADD      r1,sp,#0x18
        0x60003dd8:    47b0        .G      BLX      r6
        0x60003dda:    9800        ..      LDR      r0,[sp,#0]
        0x60003ddc:    b120         .      CBZ      r0,0x60003de8 ; StrFormatPrintf + 488
        0x60003dde:    2301        .#      MOVS     r3,#1
        0x60003de0:    4602        .F      MOV      r2,r0
        0x60003de2:    a906        ..      ADD      r1,sp,#0x18
        0x60003de4:    981d        ..      LDR      r0,[sp,#0x74]
        0x60003de6:    47b0        .G      BLX      r6
        0x60003de8:    9807        ..      LDR      r0,[sp,#0x1c]
        0x60003dea:    2866        f(      CMP      r0,#0x66
        0x60003dec:    d001        ..      BEQ      0x60003df2 ; StrFormatPrintf + 498
        0x60003dee:    2846        F(      CMP      r0,#0x46
        0x60003df0:    d158        X.      BNE      0x60003ea4 ; StrFormatPrintf + 676
        0x60003df2:    f10a0007    ....    ADD      r0,r10,#7
        0x60003df6:    464b        KF      MOV      r3,r9
        0x60003df8:    f0200007     ...    BIC      r0,r0,#7
        0x60003dfc:    f1000a08    ....    ADD      r10,r0,#8
        0x60003e00:    ed900b00    ....    VLDR     d0,[r0,#0]
        0x60003e04:    220a        ."      MOVS     r2,#0xa
        0x60003e06:    ed8d0b14    ....    VSTR     d0,[sp,#0x50]
        0x60003e0a:    a914        ..      ADD      r1,sp,#0x50
        0x60003e0c:    a80a        ..      ADD      r0,sp,#0x28
        0x60003e0e:    f7fffa59    ..Y.    BL       ConvertFloatRadixNumToString ; 0x600032c4
        0x60003e12:    a90a        ..      ADD      r1,sp,#0x28
        0x60003e14:    9003        ..      STR      r0,[sp,#0xc]
        0x60003e16:    180f        ..      ADDS     r7,r1,r0
        0x60003e18:    e004        ..      B        0x60003e24 ; StrFormatPrintf + 548
        0x60003e1a:    e048        H.      B        0x60003eae ; StrFormatPrintf + 686
        0x60003e1c:    e049        I.      B        0x60003eb2 ; StrFormatPrintf + 690
        0x60003e1e:    e0c8        ..      B        0x60003fb2 ; StrFormatPrintf + 946
        0x60003e20:    e117        ..      B        0x60004052 ; StrFormatPrintf + 1106
        0x60003e22:    e11d        ..      B        0x60004060 ; StrFormatPrintf + 1120
        0x60003e24:    ed9d0b14    ....    VLDR     d0,[sp,#0x50]
        0x60003e28:    eeb50bc0    ....    VCMPE.F64 d0,#0.0
        0x60003e2c:    eef1fa10    ....    VMRS     APSR_nzcv,FPSCR
        0x60003e30:    d203        ..      BCS      0x60003e3a ; StrFormatPrintf + 570
        0x60003e32:    1c40        @.      ADDS     r0,r0,#1
        0x60003e34:    9003        ..      STR      r0,[sp,#0xc]
        0x60003e36:    202d        -       MOVS     r0,#0x2d
        0x60003e38:    e00e        ..      B        0x60003e58 ; StrFormatPrintf + 600
        0x60003e3a:    07a0        ..      LSLS     r0,r4,#30
        0x60003e3c:    d504        ..      BPL      0x60003e48 ; StrFormatPrintf + 584
        0x60003e3e:    9803        ..      LDR      r0,[sp,#0xc]
        0x60003e40:    1c40        @.      ADDS     r0,r0,#1
        0x60003e42:    9003        ..      STR      r0,[sp,#0xc]
        0x60003e44:    202b        +       MOVS     r0,#0x2b
        0x60003e46:    e007        ..      B        0x60003e58 ; StrFormatPrintf + 600
        0x60003e48:    0760        `.      LSLS     r0,r4,#29
        0x60003e4a:    d504        ..      BPL      0x60003e56 ; StrFormatPrintf + 598
        0x60003e4c:    9803        ..      LDR      r0,[sp,#0xc]
        0x60003e4e:    1c40        @.      ADDS     r0,r0,#1
        0x60003e50:    9003        ..      STR      r0,[sp,#0xc]
        0x60003e52:    2020                MOVS     r0,#0x20
        0x60003e54:    e000        ..      B        0x60003e58 ; StrFormatPrintf + 600
        0x60003e56:    2000        .       MOVS     r0,#0
        0x60003e58:    4681        .F      MOV      r9,r0
        0x60003e5a:    0720         .      LSLS     r0,r4,#28
        0x60003e5c:    d511        ..      BPL      0x60003e82 ; StrFormatPrintf + 642
        0x60003e5e:    f1b90000    ....    SUBS     r0,r9,#0
        0x60003e62:    d004        ..      BEQ      0x60003e6e ; StrFormatPrintf + 622
        0x60003e64:    2301        .#      MOVS     r3,#1
        0x60003e66:    4602        .F      MOV      r2,r0
        0x60003e68:    a906        ..      ADD      r1,sp,#0x18
        0x60003e6a:    981d        ..      LDR      r0,[sp,#0x74]
        0x60003e6c:    47b0        .G      BLX      r6
        0x60003e6e:    9903        ..      LDR      r1,[sp,#0xc]
        0x60003e70:    2230        0"      MOVS     r2,#0x30
        0x60003e72:    981d        ..      LDR      r0,[sp,#0x74]
        0x60003e74:    eba80301    ....    SUB      r3,r8,r1
        0x60003e78:    a906        ..      ADD      r1,sp,#0x18
        0x60003e7a:    47b0        .G      BLX      r6
        0x60003e7c:    f8cd800c    ....    STR      r8,[sp,#0xc]
        0x60003e80:    e010        ..      B        0x60003ea4 ; StrFormatPrintf + 676
        0x60003e82:    07e0        ..      LSLS     r0,r4,#31
        0x60003e84:    d106        ..      BNE      0x60003e94 ; StrFormatPrintf + 660
        0x60003e86:    9903        ..      LDR      r1,[sp,#0xc]
        0x60003e88:    2220         "      MOVS     r2,#0x20
        0x60003e8a:    981d        ..      LDR      r0,[sp,#0x74]
        0x60003e8c:    eba80301    ....    SUB      r3,r8,r1
        0x60003e90:    a906        ..      ADD      r1,sp,#0x18
        0x60003e92:    47b0        .G      BLX      r6
        0x60003e94:    f1b90000    ....    SUBS     r0,r9,#0
        0x60003e98:    d004        ..      BEQ      0x60003ea4 ; StrFormatPrintf + 676
        0x60003e9a:    2301        .#      MOVS     r3,#1
        0x60003e9c:    4602        .F      MOV      r2,r0
        0x60003e9e:    a906        ..      ADD      r1,sp,#0x18
        0x60003ea0:    981d        ..      LDR      r0,[sp,#0x74]
        0x60003ea2:    47b0        .G      BLX      r6
        0x60003ea4:    9807        ..      LDR      r0,[sp,#0x1c]
        0x60003ea6:    2858        X(      CMP      r0,#0x58
        0x60003ea8:    d003        ..      BEQ      0x60003eb2 ; StrFormatPrintf + 690
        0x60003eaa:    2878        x(      CMP      r0,#0x78
        0x60003eac:    d178        x.      BNE      0x60003fa0 ; StrFormatPrintf + 928
        0x60003eae:    f04f0b00    O...    MOV      r11,#0
        0x60003eb2:    05e0        ..      LSLS     r0,r4,#23
        0x60003eb4:    d50a        ..      BPL      0x60003ecc ; StrFormatPrintf + 716
        0x60003eb6:    f10a0007    ....    ADD      r0,r10,#7
        0x60003eba:    f0200007     ...    BIC      r0,r0,#7
        0x60003ebe:    f1000a08    ....    ADD      r10,r0,#8
        0x60003ec2:    e9d01000    ....    LDRD     r1,r0,[r0,#0]
        0x60003ec6:    e9cd1008    ....    STRD     r1,r0,[sp,#0x20]
        0x60003eca:    e004        ..      B        0x60003ed6 ; StrFormatPrintf + 726
        0x60003ecc:    2200        ."      MOVS     r2,#0
        0x60003ece:    f85a1b04    Z...    LDR      r1,[r10],#4
        0x60003ed2:    e9cd1208    ....    STRD     r1,r2,[sp,#0x20]
        0x60003ed6:    2310        .#      MOVS     r3,#0x10
        0x60003ed8:    f8cdb000    ....    STR      r11,[sp,#0]
        0x60003edc:    2200        ."      MOVS     r2,#0
        0x60003ede:    a908        ..      ADD      r1,sp,#0x20
        0x60003ee0:    a80a        ..      ADD      r0,sp,#0x28
        0x60003ee2:    f7fffa9b    ....    BL       ConvertRadixNumToString ; 0x6000341c
        0x60003ee6:    0721        !.      LSLS     r1,r4,#28
        0x60003ee8:    f04f0900    O...    MOV      r9,#0
        0x60003eec:    a90a        ..      ADD      r1,sp,#0x28
        0x60003eee:    9003        ..      STR      r0,[sp,#0xc]
        0x60003ef0:    eb010700    ....    ADD      r7,r1,r0
        0x60003ef4:    d51c        ..      BPL      0x60003f30 ; StrFormatPrintf + 816
        0x60003ef6:    06e0        ..      LSLS     r0,r4,#27
        0x60003ef8:    d510        ..      BPL      0x60003f1c ; StrFormatPrintf + 796
        0x60003efa:    2301        .#      MOVS     r3,#1
        0x60003efc:    981d        ..      LDR      r0,[sp,#0x74]
        0x60003efe:    2230        0"      MOVS     r2,#0x30
        0x60003f00:    a906        ..      ADD      r1,sp,#0x18
        0x60003f02:    47b0        .G      BLX      r6
        0x60003f04:    f1bb0f00    ....    CMP      r11,#0
        0x60003f08:    d001        ..      BEQ      0x60003f0e ; StrFormatPrintf + 782
        0x60003f0a:    2258        X"      MOVS     r2,#0x58
        0x60003f0c:    e000        ..      B        0x60003f10 ; StrFormatPrintf + 784
        0x60003f0e:    2278        x"      MOVS     r2,#0x78
        0x60003f10:    981d        ..      LDR      r0,[sp,#0x74]
        0x60003f12:    2301        .#      MOVS     r3,#1
        0x60003f14:    a906        ..      ADD      r1,sp,#0x18
        0x60003f16:    47b0        .G      BLX      r6
        0x60003f18:    f04f0901    O...    MOV      r9,#1
        0x60003f1c:    9903        ..      LDR      r1,[sp,#0xc]
        0x60003f1e:    2230        0"      MOVS     r2,#0x30
        0x60003f20:    981d        ..      LDR      r0,[sp,#0x74]
        0x60003f22:    eba80301    ....    SUB      r3,r8,r1
        0x60003f26:    a906        ..      ADD      r1,sp,#0x18
        0x60003f28:    47b0        .G      BLX      r6
        0x60003f2a:    f8cd800c    ....    STR      r8,[sp,#0xc]
        0x60003f2e:    e001        ..      B        0x60003f34 ; StrFormatPrintf + 820
        0x60003f30:    07e0        ..      LSLS     r0,r4,#31
        0x60003f32:    d005        ..      BEQ      0x60003f40 ; StrFormatPrintf + 832
        0x60003f34:    06e0        ..      LSLS     r0,r4,#27
        0x60003f36:    d533        3.      BPL      0x60003fa0 ; StrFormatPrintf + 928
        0x60003f38:    f1b90f00    ....    CMP      r9,#0
        0x60003f3c:    d01e        ..      BEQ      0x60003f7c ; StrFormatPrintf + 892
        0x60003f3e:    e02f        /.      B        0x60003fa0 ; StrFormatPrintf + 928
        0x60003f40:    06e0        ..      LSLS     r0,r4,#27
        0x60003f42:    d502        ..      BPL      0x60003f4a ; StrFormatPrintf + 842
        0x60003f44:    9803        ..      LDR      r0,[sp,#0xc]
        0x60003f46:    1c80        ..      ADDS     r0,r0,#2
        0x60003f48:    9003        ..      STR      r0,[sp,#0xc]
        0x60003f4a:    9903        ..      LDR      r1,[sp,#0xc]
        0x60003f4c:    2220         "      MOVS     r2,#0x20
        0x60003f4e:    981d        ..      LDR      r0,[sp,#0x74]
        0x60003f50:    eba80301    ....    SUB      r3,r8,r1
        0x60003f54:    a906        ..      ADD      r1,sp,#0x18
        0x60003f56:    47b0        .G      BLX      r6
        0x60003f58:    06e0        ..      LSLS     r0,r4,#27
        0x60003f5a:    d521        !.      BPL      0x60003fa0 ; StrFormatPrintf + 928
        0x60003f5c:    2301        .#      MOVS     r3,#1
        0x60003f5e:    981d        ..      LDR      r0,[sp,#0x74]
        0x60003f60:    2230        0"      MOVS     r2,#0x30
        0x60003f62:    a906        ..      ADD      r1,sp,#0x18
        0x60003f64:    47b0        .G      BLX      r6
        0x60003f66:    f1bb0f00    ....    CMP      r11,#0
        0x60003f6a:    d001        ..      BEQ      0x60003f70 ; StrFormatPrintf + 880
        0x60003f6c:    2258        X"      MOVS     r2,#0x58
        0x60003f6e:    e000        ..      B        0x60003f72 ; StrFormatPrintf + 882
        0x60003f70:    2278        x"      MOVS     r2,#0x78
        0x60003f72:    981d        ..      LDR      r0,[sp,#0x74]
        0x60003f74:    2301        .#      MOVS     r3,#1
        0x60003f76:    a906        ..      ADD      r1,sp,#0x18
        0x60003f78:    47b0        .G      BLX      r6
        0x60003f7a:    e011        ..      B        0x60003fa0 ; StrFormatPrintf + 928
        0x60003f7c:    2301        .#      MOVS     r3,#1
        0x60003f7e:    981d        ..      LDR      r0,[sp,#0x74]
        0x60003f80:    2230        0"      MOVS     r2,#0x30
        0x60003f82:    a906        ..      ADD      r1,sp,#0x18
        0x60003f84:    47b0        .G      BLX      r6
        0x60003f86:    f1bb0f00    ....    CMP      r11,#0
        0x60003f8a:    d001        ..      BEQ      0x60003f90 ; StrFormatPrintf + 912
        0x60003f8c:    2258        X"      MOVS     r2,#0x58
        0x60003f8e:    e000        ..      B        0x60003f92 ; StrFormatPrintf + 914
        0x60003f90:    2278        x"      MOVS     r2,#0x78
        0x60003f92:    981d        ..      LDR      r0,[sp,#0x74]
        0x60003f94:    2301        .#      MOVS     r3,#1
        0x60003f96:    a906        ..      ADD      r1,sp,#0x18
        0x60003f98:    47b0        .G      BLX      r6
        0x60003f9a:    9803        ..      LDR      r0,[sp,#0xc]
        0x60003f9c:    1c80        ..      ADDS     r0,r0,#2
        0x60003f9e:    9003        ..      STR      r0,[sp,#0xc]
        0x60003fa0:    9807        ..      LDR      r0,[sp,#0x1c]
        0x60003fa2:    286f        o(      CMP      r0,#0x6f
        0x60003fa4:    d005        ..      BEQ      0x60003fb2 ; StrFormatPrintf + 946
        0x60003fa6:    2862        b(      CMP      r0,#0x62
        0x60003fa8:    d003        ..      BEQ      0x60003fb2 ; StrFormatPrintf + 946
        0x60003faa:    2870        p(      CMP      r0,#0x70
        0x60003fac:    d001        ..      BEQ      0x60003fb2 ; StrFormatPrintf + 946
        0x60003fae:    2875        u(      CMP      r0,#0x75
        0x60003fb0:    d13f        ?.      BNE      0x60004032 ; StrFormatPrintf + 1074
        0x60003fb2:    05e0        ..      LSLS     r0,r4,#23
        0x60003fb4:    d50a        ..      BPL      0x60003fcc ; StrFormatPrintf + 972
        0x60003fb6:    f10a0007    ....    ADD      r0,r10,#7
        0x60003fba:    f0200007     ...    BIC      r0,r0,#7
        0x60003fbe:    f1000a08    ....    ADD      r10,r0,#8
        0x60003fc2:    e9d01000    ....    LDRD     r1,r0,[r0,#0]
        0x60003fc6:    e9cd1008    ....    STRD     r1,r0,[sp,#0x20]
        0x60003fca:    e004        ..      B        0x60003fd6 ; StrFormatPrintf + 982
        0x60003fcc:    2200        ."      MOVS     r2,#0
        0x60003fce:    f85a1b04    Z...    LDR      r1,[r10],#4
        0x60003fd2:    e9cd1208    ....    STRD     r1,r2,[sp,#0x20]
        0x60003fd6:    9807        ..      LDR      r0,[sp,#0x1c]
        0x60003fd8:    286f        o(      CMP      r0,#0x6f
        0x60003fda:    d01b        ..      BEQ      0x60004014 ; StrFormatPrintf + 1044
        0x60003fdc:    2862        b(      CMP      r0,#0x62
        0x60003fde:    d01b        ..      BEQ      0x60004018 ; StrFormatPrintf + 1048
        0x60003fe0:    2870        p(      CMP      r0,#0x70
        0x60003fe2:    d01b        ..      BEQ      0x6000401c ; StrFormatPrintf + 1052
        0x60003fe4:    230a        .#      MOVS     r3,#0xa
        0x60003fe6:    f8cdb000    ....    STR      r11,[sp,#0]
        0x60003fea:    2200        ."      MOVS     r2,#0
        0x60003fec:    a908        ..      ADD      r1,sp,#0x20
        0x60003fee:    a80a        ..      ADD      r0,sp,#0x28
        0x60003ff0:    f7fffa14    ....    BL       ConvertRadixNumToString ; 0x6000341c
        0x60003ff4:    0721        !.      LSLS     r1,r4,#28
        0x60003ff6:    9003        ..      STR      r0,[sp,#0xc]
        0x60003ff8:    a90a        ..      ADD      r1,sp,#0x28
        0x60003ffa:    eb010700    ....    ADD      r7,r1,r0
        0x60003ffe:    d50f        ..      BPL      0x60004020 ; StrFormatPrintf + 1056
        0x60004000:    9903        ..      LDR      r1,[sp,#0xc]
        0x60004002:    2230        0"      MOVS     r2,#0x30
        0x60004004:    981d        ..      LDR      r0,[sp,#0x74]
        0x60004006:    eba80301    ....    SUB      r3,r8,r1
        0x6000400a:    a906        ..      ADD      r1,sp,#0x18
        0x6000400c:    47b0        .G      BLX      r6
        0x6000400e:    f8cd800c    ....    STR      r8,[sp,#0xc]
        0x60004012:    e00e        ..      B        0x60004032 ; StrFormatPrintf + 1074
        0x60004014:    2308        .#      MOVS     r3,#8
        0x60004016:    e7e6        ..      B        0x60003fe6 ; StrFormatPrintf + 998
        0x60004018:    2302        .#      MOVS     r3,#2
        0x6000401a:    e7e4        ..      B        0x60003fe6 ; StrFormatPrintf + 998
        0x6000401c:    2310        .#      MOVS     r3,#0x10
        0x6000401e:    e7e2        ..      B        0x60003fe6 ; StrFormatPrintf + 998
        0x60004020:    07e0        ..      LSLS     r0,r4,#31
        0x60004022:    d106        ..      BNE      0x60004032 ; StrFormatPrintf + 1074
        0x60004024:    9903        ..      LDR      r1,[sp,#0xc]
        0x60004026:    2220         "      MOVS     r2,#0x20
        0x60004028:    981d        ..      LDR      r0,[sp,#0x74]
        0x6000402a:    eba80301    ....    SUB      r3,r8,r1
        0x6000402e:    a906        ..      ADD      r1,sp,#0x18
        0x60004030:    47b0        .G      BLX      r6
        0x60004032:    b92f        /.      CBNZ     r7,0x60004040 ; StrFormatPrintf + 1088
        0x60004034:    e007        ..      B        0x60004046 ; StrFormatPrintf + 1094
        0x60004036:    2301        .#      MOVS     r3,#1
        0x60004038:    981d        ..      LDR      r0,[sp,#0x74]
        0x6000403a:    1e7f        ..      SUBS     r7,r7,#1
        0x6000403c:    a906        ..      ADD      r1,sp,#0x18
        0x6000403e:    47b0        .G      BLX      r6
        0x60004040:    783a        :x      LDRB     r2,[r7,#0]
        0x60004042:    2a00        .*      CMP      r2,#0
        0x60004044:    d1f7        ..      BNE      0x60004036 ; StrFormatPrintf + 1078
        0x60004046:    07e0        ..      LSLS     r0,r4,#31
        0x60004048:    d03e        >.      BEQ      0x600040c8 ; StrFormatPrintf + 1224
        0x6000404a:    9903        ..      LDR      r1,[sp,#0xc]
        0x6000404c:    eba80301    ....    SUB      r3,r8,r1
        0x60004050:    e037        7.      B        0x600040c2 ; StrFormatPrintf + 1218
        0x60004052:    f81a2b04    ...+    LDRB     r2,[r10],#4
        0x60004056:    e5e0        ..      B        0x60003c1a ; StrFormatPrintf + 26
        0x60004058:    a906        ..      ADD      r1,sp,#0x18
        0x6000405a:    981d        ..      LDR      r0,[sp,#0x74]
        0x6000405c:    47b0        .G      BLX      r6
        0x6000405e:    e033        3.      B        0x600040c8 ; StrFormatPrintf + 1224
        0x60004060:    f85a7b04    Z..{    LDR      r7,[r10],#4
        0x60004064:    b37f        ..      CBZ      r7,0x600040c6 ; StrFormatPrintf + 1222
        0x60004066:    9818        ..      LDR      r0,[sp,#0x60]
        0x60004068:    b108        ..      CBZ      r0,0x6000406e ; StrFormatPrintf + 1134
        0x6000406a:    46cb        .F      MOV      r11,r9
        0x6000406c:    e003        ..      B        0x60004076 ; StrFormatPrintf + 1142
        0x6000406e:    4638        8F      MOV      r0,r7
        0x60004070:    f7fefb22    ..".    BL       strlen ; 0x600026b8
        0x60004074:    4683        .F      MOV      r11,r0
        0x60004076:    07e0        ..      LSLS     r0,r4,#31
        0x60004078:    d105        ..      BNE      0x60004086 ; StrFormatPrintf + 1158
        0x6000407a:    2220         "      MOVS     r2,#0x20
        0x6000407c:    981d        ..      LDR      r0,[sp,#0x74]
        0x6000407e:    eba8030b    ....    SUB      r3,r8,r11
        0x60004082:    a906        ..      ADD      r1,sp,#0x18
        0x60004084:    47b0        .G      BLX      r6
        0x60004086:    9818        ..      LDR      r0,[sp,#0x60]
        0x60004088:    b938        8.      CBNZ     r0,0x6000409a ; StrFormatPrintf + 1178
        0x6000408a:    e013        ..      B        0x600040b4 ; StrFormatPrintf + 1204
        0x6000408c:    2301        .#      MOVS     r3,#1
        0x6000408e:    981d        ..      LDR      r0,[sp,#0x74]
        0x60004090:    1c7f        ..      ADDS     r7,r7,#1
        0x60004092:    a906        ..      ADD      r1,sp,#0x18
        0x60004094:    47b0        .G      BLX      r6
        0x60004096:    f1ab0b01    ....    SUB      r11,r11,#1
        0x6000409a:    783a        :x      LDRB     r2,[r7,#0]
        0x6000409c:    b112        ..      CBZ      r2,0x600040a4 ; StrFormatPrintf + 1188
        0x6000409e:    f1bb0f00    ....    CMP      r11,#0
        0x600040a2:    dcf3        ..      BGT      0x6000408c ; StrFormatPrintf + 1164
        0x600040a4:    eba90b0b    ....    SUB      r11,r9,r11
        0x600040a8:    e007        ..      B        0x600040ba ; StrFormatPrintf + 1210
        0x600040aa:    2301        .#      MOVS     r3,#1
        0x600040ac:    981d        ..      LDR      r0,[sp,#0x74]
        0x600040ae:    1c7f        ..      ADDS     r7,r7,#1
        0x600040b0:    a906        ..      ADD      r1,sp,#0x18
        0x600040b2:    47b0        .G      BLX      r6
        0x600040b4:    783a        :x      LDRB     r2,[r7,#0]
        0x600040b6:    2a00        .*      CMP      r2,#0
        0x600040b8:    d1f7        ..      BNE      0x600040aa ; StrFormatPrintf + 1194
        0x600040ba:    07e0        ..      LSLS     r0,r4,#31
        0x600040bc:    d004        ..      BEQ      0x600040c8 ; StrFormatPrintf + 1224
        0x600040be:    eba8030b    ....    SUB      r3,r8,r11
        0x600040c2:    2220         "      MOVS     r2,#0x20
        0x600040c4:    e7c8        ..      B        0x60004058 ; StrFormatPrintf + 1112
        0x600040c6:    e7ff        ..      B        0x600040c8 ; StrFormatPrintf + 1224
        0x600040c8:    1c6d        m.      ADDS     r5,r5,#1
        0x600040ca:    782a        *x      LDRB     r2,[r5,#0]
        0x600040cc:    2a00        .*      CMP      r2,#0
        0x600040ce:    f47fada2    ....    BNE      0x60003c16 ; StrFormatPrintf + 22
        0x600040d2:    9806        ..      LDR      r0,[sp,#0x18]
        0x600040d4:    b01f        ..      ADD      sp,sp,#0x7c
        0x600040d6:    e8bd8ff0    ....    POP      {r4-r11,pc}
        0x600040da:    0000        ..      MOVS     r0,r0
    i.SystemInit
    SystemInit
        0x600040dc:    4937        7I      LDR      r1,[pc,#220] ; [0x600041bc] = 0xe000ed88
        0x600040de:    e92d41f0    -..A    PUSH     {r4-r8,lr}
        0x600040e2:    4837        7H      LDR      r0,[pc,#220] ; [0x600041c0] = 0x400b8000
        0x600040e4:    680a        .h      LDR      r2,[r1,#0]
        0x600040e6:    f4420270    B.p.    ORR      r2,r2,#0xf00000
        0x600040ea:    600a        .`      STR      r2,[r1,#0]
        0x600040ec:    8801        ..      LDRH     r1,[r0,#0]
        0x600040ee:    0749        I.      LSLS     r1,r1,#29
        0x600040f0:    d503        ..      BPL      0x600040fa ; SystemInit + 30
        0x600040f2:    8801        ..      LDRH     r1,[r0,#0]
        0x600040f4:    f0210104    !...    BIC      r1,r1,#4
        0x600040f8:    8001        ..      STRH     r1,[r0,#0]
        0x600040fa:    4832        2H      LDR      r0,[pc,#200] ; [0x600041c4] = 0x400d0000
        0x600040fc:    8801        ..      LDRH     r1,[r0,#0]
        0x600040fe:    0749        I.      LSLS     r1,r1,#29
        0x60004100:    d503        ..      BPL      0x6000410a ; SystemInit + 46
        0x60004102:    8801        ..      LDRH     r1,[r0,#0]
        0x60004104:    f0210104    !...    BIC      r1,r1,#4
        0x60004108:    8001        ..      STRH     r1,[r0,#0]
        0x6000410a:    482f        /H      LDR      r0,[pc,#188] ; [0x600041c8] = 0x400bc000
        0x6000410c:    f64f72ff    O..r    MOV      r2,#0xffff
        0x60004110:    492e        .I      LDR      r1,[pc,#184] ; [0x600041cc] = 0xd928c520
        0x60004112:    6041        A`      STR      r1,[r0,#4]
        0x60004114:    6082        .`      STR      r2,[r0,#8]
        0x60004116:    6802        .h      LDR      r2,[r0,#0]
        0x60004118:    f04f21e0    O..!    MOV      r1,#0xe000e000
        0x6000411c:    f0220280    "...    BIC      r2,r2,#0x80
        0x60004120:    f0420220    B. .    ORR      r2,r2,#0x20
        0x60004124:    6002        .`      STR      r2,[r0,#0]
        0x60004126:    6908        .i      LDR      r0,[r1,#0x10]
        0x60004128:    07c0        ..      LSLS     r0,r0,#31
        0x6000412a:    d003        ..      BEQ      0x60004134 ; SystemInit + 88
        0x6000412c:    6908        .i      LDR      r0,[r1,#0x10]
        0x6000412e:    f0200001     ...    BIC      r0,r0,#1
        0x60004132:    6108        .a      STR      r0,[r1,#0x10]
        0x60004134:    4921        !I      LDR      r1,[pc,#132] ; [0x600041bc] = 0xe000ed88
        0x60004136:    3974        t9      SUBS     r1,r1,#0x74
        0x60004138:    2000        .       MOVS     r0,#0
        0x6000413a:    680a        .h      LDR      r2,[r1,#0]
        0x6000413c:    0392        ..      LSLS     r2,r2,#14
        0x6000413e:    d411        ..      BMI      0x60004164 ; SystemInit + 136
        0x60004140:    f3bf8f4f    ..O.    DSB      
        0x60004144:    f3bf8f6f    ..o.    ISB      
        0x60004148:    4a21        !J      LDR      r2,[pc,#132] ; [0x600041d0] = 0xe000ef50
        0x6000414a:    6010        .`      STR      r0,[r2,#0]
        0x6000414c:    f3bf8f4f    ..O.    DSB      
        0x60004150:    f3bf8f6f    ..o.    ISB      
        0x60004154:    680a        .h      LDR      r2,[r1,#0]
        0x60004156:    f4423200    B..2    ORR      r2,r2,#0x20000
        0x6000415a:    600a        .`      STR      r2,[r1,#0]
        0x6000415c:    f3bf8f4f    ..O.    DSB      
        0x60004160:    f3bf8f6f    ..o.    ISB      
        0x60004164:    680a        .h      LDR      r2,[r1,#0]
        0x60004166:    03d2        ..      LSLS     r2,r2,#15
        0x60004168:    d423        #.      BMI      0x600041b2 ; SystemInit + 214
        0x6000416a:    4a14        .J      LDR      r2,[pc,#80] ; [0x600041bc] = 0xe000ed88
        0x6000416c:    1f12        ..      SUBS     r2,r2,#4
        0x6000416e:    6010        .`      STR      r0,[r2,#0]
        0x60004170:    f3bf8f4f    ..O.    DSB      
        0x60004174:    1f10        ..      SUBS     r0,r2,#4
        0x60004176:    f64374ff    C..t    MOV      r4,#0x3fff
        0x6000417a:    6800        .h      LDR      r0,[r0,#0]
        0x6000417c:    4d14        .M      LDR      r5,[pc,#80] ; [0x600041d0] = 0xe000ef50
        0x6000417e:    3510        .5      ADDS     r5,r5,#0x10
        0x60004180:    f3c0324e    ..N2    UBFX     r2,r0,#13,#15
        0x60004184:    f3c003c9    ....    UBFX     r3,r0,#3,#10
        0x60004188:    ea041642    ..B.    AND      r6,r4,r2,LSL #5
        0x6000418c:    4618        .F      MOV      r0,r3
        0x6000418e:    bf00        ..      NOP      
        0x60004190:    ea467780    F..w    ORR      r7,r6,r0,LSL #30
        0x60004194:    602f        /`      STR      r7,[r5,#0]
        0x60004196:    1e40        @.      SUBS     r0,r0,#1
        0x60004198:    d2fa        ..      BCS      0x60004190 ; SystemInit + 180
        0x6000419a:    1e52        R.      SUBS     r2,r2,#1
        0x6000419c:    d2f4        ..      BCS      0x60004188 ; SystemInit + 172
        0x6000419e:    f3bf8f4f    ..O.    DSB      
        0x600041a2:    6808        .h      LDR      r0,[r1,#0]
        0x600041a4:    f4403080    @..0    ORR      r0,r0,#0x10000
        0x600041a8:    6008        .`      STR      r0,[r1,#0]
        0x600041aa:    f3bf8f4f    ..O.    DSB      
        0x600041ae:    f3bf8f6f    ..o.    ISB      
        0x600041b2:    f000f80f    ....    BL       SystemInitHook ; 0x600041d4
        0x600041b6:    e8bd81f0    ....    POP      {r4-r8,pc}
    $d
        0x600041ba:    0000        ..      DCW    0
        0x600041bc:    e000ed88    ....    DCD    3758157192
        0x600041c0:    400b8000    ...@    DCD    1074495488
        0x600041c4:    400d0000    ...@    DCD    1074593792
        0x600041c8:    400bc000    ...@    DCD    1074511872
        0x600041cc:    d928c520     .(.    DCD    3643327776
        0x600041d0:    e000ef50    P...    DCD    3758157648
    $t
    i.SystemInitHook
    SystemInitHook
        0x600041d4:    4770        pG      BX       lr
    i.__ARM_fpclassify
    __ARM_fpclassify
        0x600041d6:    b403        ..      PUSH     {r0,r1}
        0x600041d8:    9801        ..      LDR      r0,[sp,#4]
        0x600041da:    0041        A.      LSLS     r1,r0,#1
        0x600041dc:    9800        ..      LDR      r0,[sp,#0]
        0x600041de:    ea5020c1    P..     ORRS     r0,r0,r1,LSL #11
        0x600041e2:    bf18        ..      IT       NE
        0x600041e4:    2004        .       MOVNE    r0,#4
        0x600041e6:    0d4a        J.      LSRS     r2,r1,#21
        0x600041e8:    bf18        ..      IT       NE
        0x600041ea:    f0400001    @...    ORRNE    r0,r0,#1
        0x600041ee:    f24072ff    @..r    MOV      r2,#0x7ff
        0x600041f2:    ebb25f51    ..Q_    CMP      r2,r1,LSR #21
        0x600041f6:    bf08        ..      IT       EQ
        0x600041f8:    f0400002    @...    ORREQ    r0,r0,#2
        0x600041fc:    2801        .(      CMP      r0,#1
        0x600041fe:    bf08        ..      IT       EQ
        0x60004200:    2005        .       MOVEQ    r0,#5
        0x60004202:    b002        ..      ADD      sp,sp,#8
        0x60004204:    4770        pG      BX       lr
        0x60004206:    0000        ..      MOVS     r0,r0
    i.__hardfp_modf
    __hardfp_modf
        0x60004208:    b471        q.      PUSH     {r0,r4-r6}
        0x6000420a:    ed2d0b02    -...    VPUSH    {d0}
        0x6000420e:    e9ddc200    ....    LDRD     r12,r2,[sp,#0]
        0x60004212:    f1bc0f00    ....    CMP      r12,#0
        0x60004216:    bf14        ..      ITE      NE
        0x60004218:    2101        .!      MOVNE    r1,#1
        0x6000421a:    2100        .!      MOVEQ    r1,#0
        0x6000421c:    ea410142    A.B.    ORR      r1,r1,r2,LSL #1
        0x60004220:    f5111f00    ....    CMN      r1,#0x200000
        0x60004224:    d908        ..      BLS      0x60004238 ; __hardfp_modf + 48
        0x60004226:    ed9d0b00    ....    VLDR     d0,[sp,#0]
        0x6000422a:    ed800b00    ....    VSTR     d0,[r0,#0]
        0x6000422e:    ed9d0b00    ....    VLDR     d0,[sp,#0]
        0x60004232:    b003        ..      ADD      sp,sp,#0xc
        0x60004234:    bc70        p.      POP      {r4-r6}
        0x60004236:    4770        pG      BX       lr
        0x60004238:    f3c2510a    ...Q    UBFX     r1,r2,#20,#11
        0x6000423c:    2400        .$      MOVS     r4,#0
        0x6000423e:    f2a131ff    ...1    SUB      r1,r1,#0x3ff
        0x60004242:    f0024300    ...C    AND      r3,r2,#0x80000000
        0x60004246:    2914        .)      CMP      r1,#0x14
        0x60004248:    da19        ..      BGE      0x6000427e ; __hardfp_modf + 118
        0x6000424a:    2900        .)      CMP      r1,#0
        0x6000424c:    bfb8        ..      IT       LT
        0x6000424e:    e9c04300    ...C    STRDLT   r4,r3,[r0,#0]
        0x60004252:    db24        $.      BLT      0x6000429e ; __hardfp_modf + 150
        0x60004254:    4d1b        .M      LDR      r5,[pc,#108] ; [0x600042c4] = 0xfffff
        0x60004256:    fa25f101    %...    LSR      r1,r5,r1
        0x6000425a:    ea020501    ....    AND      r5,r2,r1
        0x6000425e:    ea550c0c    U...    ORRS     r12,r5,r12
        0x60004262:    d016        ..      BEQ      0x60004292 ; __hardfp_modf + 138
        0x60004264:    ea220101    "...    BIC      r1,r2,r1
        0x60004268:    e9c04100    ...A    STRD     r4,r1,[r0,#0]
        0x6000426c:    ed900b00    ....    VLDR     d0,[r0,#0]
        0x60004270:    ed9d1b00    ....    VLDR     d1,[sp,#0]
        0x60004274:    b003        ..      ADD      sp,sp,#0xc
        0x60004276:    ee310b40    1.@.    VSUB.F64 d0,d1,d0
        0x6000427a:    bc70        p.      POP      {r4-r6}
        0x6000427c:    4770        pG      BX       lr
        0x6000427e:    2933        3)      CMP      r1,#0x33
        0x60004280:    dc07        ..      BGT      0x60004292 ; __hardfp_modf + 138
        0x60004282:    f04f35ff    O..5    MOV      r5,#0xffffffff
        0x60004286:    3914        .9      SUBS     r1,r1,#0x14
        0x60004288:    fa25f101    %...    LSR      r1,r5,r1
        0x6000428c:    ea1c0f01    ....    TST      r12,r1
        0x60004290:    d10a        ..      BNE      0x600042a8 ; __hardfp_modf + 160
        0x60004292:    ed9d0b00    ....    VLDR     d0,[sp,#0]
        0x60004296:    ed800b00    ....    VSTR     d0,[r0,#0]
        0x6000429a:    e9cd4300    ...C    STRD     r4,r3,[sp,#0]
        0x6000429e:    ed9d0b00    ....    VLDR     d0,[sp,#0]
        0x600042a2:    b003        ..      ADD      sp,sp,#0xc
        0x600042a4:    bc70        p.      POP      {r4-r6}
        0x600042a6:    4770        pG      BX       lr
        0x600042a8:    ea2c0101    ,...    BIC      r1,r12,r1
        0x600042ac:    e9c01200    ....    STRD     r1,r2,[r0,#0]
        0x600042b0:    ed900b00    ....    VLDR     d0,[r0,#0]
        0x600042b4:    ed9d1b00    ....    VLDR     d1,[sp,#0]
        0x600042b8:    b003        ..      ADD      sp,sp,#0xc
        0x600042ba:    ee310b40    1.@.    VSUB.F64 d0,d1,d0
        0x600042be:    bc70        p.      POP      {r4-r6}
        0x600042c0:    4770        pG      BX       lr
    $d
        0x600042c2:    0000        ..      DCW    0
        0x600042c4:    000fffff    ....    DCD    1048575
    $t
    i.__hardfp_pow
    __hardfp_pow
        0x600042c8:    e92d4df0    -..M    PUSH     {r4-r8,r10,r11,lr}
        0x600042cc:    ed2d0b04    -...    VPUSH    {d0-d1}
        0x600042d0:    ed2d8b0a    -...    VPUSH    {d8-d12}
        0x600042d4:    b09a        ..      SUB      sp,sp,#0x68
        0x600042d6:    e9dd5025    ..%P    LDRD     r5,r0,[sp,#0x94]
        0x600042da:    9c27        '.      LDR      r4,[sp,#0x9c]
        0x600042dc:    f8dda090    ....    LDR      r10,[sp,#0x90]
        0x600042e0:    f0254600    %..F    BIC      r6,r5,#0x80000000
        0x600042e4:    f0244800    $..H    BIC      r8,r4,#0x80000000
        0x600042e8:    f1ba0f00    ....    CMP      r10,#0
        0x600042ec:    bf14        ..      ITE      NE
        0x600042ee:    2101        .!      MOVNE    r1,#1
        0x600042f0:    2100        .!      MOVEQ    r1,#0
        0x600042f2:    eb010245    ..E.    ADD      r2,r1,r5,LSL #1
        0x600042f6:    49f8        .I      LDR      r1,[pc,#992] ; [0x600046d8] = 0x1fffff
        0x600042f8:    1853        S.      ADDS     r3,r2,r1
        0x600042fa:    104a        J.      ASRS     r2,r1,#1
        0x600042fc:    4293        .B      CMP      r3,r2
        0x600042fe:    d32a        *.      BCC      0x60004356 ; __hardfp_pow + 142
        0x60004300:    2800        .(      CMP      r0,#0
        0x60004302:    bf14        ..      ITE      NE
        0x60004304:    2301        .#      MOVNE    r3,#1
        0x60004306:    2300        .#      MOVEQ    r3,#0
        0x60004308:    eb030344    ..D.    ADD      r3,r3,r4,LSL #1
        0x6000430c:    440b        .D      ADD      r3,r3,r1
        0x6000430e:    49f3        .I      LDR      r1,[pc,#972] ; [0x600046dc] = 0xfffff
        0x60004310:    428b        .B      CMP      r3,r1
        0x60004312:    d320         .      BCC      0x60004356 ; __hardfp_pow + 142
        0x60004314:    ea580100    X...    ORRS     r1,r8,r0
        0x60004318:    ed9f9bf1    ....    VLDR     d9,[pc,#964] ; [0x600046e0] = 0
        0x6000431c:    d072        r.      BEQ      0x60004404 ; __hardfp_pow + 316
        0x6000431e:    f8dfb3c8    ....    LDR      r11,[pc,#968] ; [0x600046e8] = 0x3ff00000
        0x60004322:    455d        ]E      CMP      r5,r11
        0x60004324:    d103        ..      BNE      0x6000432e ; __hardfp_pow + 102
        0x60004326:    f1ba0f00    ....    CMP      r10,#0
        0x6000432a:    d105        ..      BNE      0x60004338 ; __hardfp_pow + 112
        0x6000432c:    e084        ..      B        0x60004438 ; __hardfp_pow + 368
        0x6000432e:    f1ba0f00    ....    CMP      r10,#0
        0x60004332:    bf08        ..      IT       EQ
        0x60004334:    2100        .!      MOVEQ    r1,#0
        0x60004336:    d000        ..      BEQ      0x6000433a ; __hardfp_pow + 114
        0x60004338:    2101        .!      MOVS     r1,#1
        0x6000433a:    eb010145    ..E.    ADD      r1,r1,r5,LSL #1
        0x6000433e:    f5111f00    ....    CMN      r1,#0x200000
        0x60004342:    d808        ..      BHI      0x60004356 ; __hardfp_pow + 142
        0x60004344:    2800        .(      CMP      r0,#0
        0x60004346:    bf14        ..      ITE      NE
        0x60004348:    2101        .!      MOVNE    r1,#1
        0x6000434a:    2100        .!      MOVEQ    r1,#0
        0x6000434c:    eb010144    ..D.    ADD      r1,r1,r4,LSL #1
        0x60004350:    f5111f00    ....    CMN      r1,#0x200000
        0x60004354:    d90b        ..      BLS      0x6000436e ; __hardfp_pow + 166
        0x60004356:    ed9d1b26    ..&.    VLDR     d1,[sp,#0x98]
        0x6000435a:    ed9d0b24    ..$.    VLDR     d0,[sp,#0x90]
        0x6000435e:    b01a        ..      ADD      sp,sp,#0x68
        0x60004360:    ecbd8b0a    ....    VPOP     {d8-d12}
        0x60004364:    b004        ..      ADD      sp,sp,#0x10
        0x60004366:    e8bd4df0    ...M    POP      {r4-r8,r10,r11,lr}
        0x6000436a:    f000bc71    ..q.    B.W      __mathlib_dbl_infnan2 ; 0x60004c50
        0x6000436e:    2700        .'      MOVS     r7,#0
        0x60004370:    2d00        .-      CMP      r5,#0
        0x60004372:    bfbc        ..      ITT      LT
        0x60004374:    49dd        .I      LDRLT    r1,[pc,#884] ; [0x600046ec] = 0x7ff00000
        0x60004376:    4588        .E      CMPLT    r8,r1
        0x60004378:    da21        !.      BGE      0x600043be ; __hardfp_pow + 246
        0x6000437a:    49dd        .I      LDR      r1,[pc,#884] ; [0x600046f0] = 0x43400000
        0x6000437c:    4588        .E      CMP      r8,r1
        0x6000437e:    bfa8        ..      IT       GE
        0x60004380:    2702        .'      MOVGE    r7,#2
        0x60004382:    da1c        ..      BGE      0x600043be ; __hardfp_pow + 246
        0x60004384:    45c3        .E      CMP      r11,r8
        0x60004386:    dc1a        ..      BGT      0x600043be ; __hardfp_pow + 246
        0x60004388:    49da        .I      LDR      r1,[pc,#872] ; [0x600046f4] = 0xfffffc01
        0x6000438a:    eb015128    ..(Q    ADD      r1,r1,r8,ASR #20
        0x6000438e:    2914        .)      CMP      r1,#0x14
        0x60004390:    dd08        ..      BLE      0x600043a4 ; __hardfp_pow + 220
        0x60004392:    f1c10234    ..4.    RSB      r2,r1,#0x34
        0x60004396:    fa20f102     ...    LSR      r1,r0,r2
        0x6000439a:    fa01f202    ....    LSL      r2,r1,r2
        0x6000439e:    4282        .B      CMP      r2,r0
        0x600043a0:    d10d        ..      BNE      0x600043be ; __hardfp_pow + 246
        0x600043a2:    e008        ..      B        0x600043b6 ; __hardfp_pow + 238
        0x600043a4:    b958        X.      CBNZ     r0,0x600043be ; __hardfp_pow + 246
        0x600043a6:    f1c10214    ....    RSB      r2,r1,#0x14
        0x600043aa:    fa28f102    (...    LSR      r1,r8,r2
        0x600043ae:    fa01f202    ....    LSL      r2,r1,r2
        0x600043b2:    4542        BE      CMP      r2,r8
        0x600043b4:    d103        ..      BNE      0x600043be ; __hardfp_pow + 246
        0x600043b6:    f0010101    ....    AND      r1,r1,#1
        0x600043ba:    f1c10702    ....    RSB      r7,r1,#2
        0x600043be:    ea56010a    V...    ORRS     r1,r6,r10
        0x600043c2:    d120         .      BNE      0x60004406 ; __hardfp_pow + 318
        0x600043c4:    2c00        .,      CMP      r4,#0
        0x600043c6:    da1e        ..      BGE      0x60004406 ; __hardfp_pow + 318
        0x600043c8:    2d00        .-      CMP      r5,#0
        0x600043ca:    bf18        ..      IT       NE
        0x600043cc:    2f02        ./      CMPNE    r7,#2
        0x600043ce:    d001        ..      BEQ      0x600043d4 ; __hardfp_pow + 268
        0x600043d0:    2f01        ./      CMP      r7,#1
        0x600043d2:    d00a        ..      BEQ      0x600043ea ; __hardfp_pow + 290
        0x600043d4:    2002        .       MOVS     r0,#2
        0x600043d6:    f000fc73    ..s.    BL       __set_errno ; 0x60004cc0
        0x600043da:    b01a        ..      ADD      sp,sp,#0x68
        0x600043dc:    ecbd8b0a    ....    VPOP     {d8-d12}
        0x600043e0:    b004        ..      ADD      sp,sp,#0x10
        0x600043e2:    e8bd4df0    ...M    POP      {r4-r8,r10,r11,lr}
        0x600043e6:    f000bc23    ..#.    B.W      __mathlib_dbl_divzero ; 0x60004c30
        0x600043ea:    2002        .       MOVS     r0,#2
        0x600043ec:    f000fc68    ..h.    BL       __set_errno ; 0x60004cc0
        0x600043f0:    f000fc1e    ....    BL       __mathlib_dbl_divzero ; 0x60004c30
        0x600043f4:    eeb10b40    ..@.    VNEG.F64 d0,d0
        0x600043f8:    b01a        ..      ADD      sp,sp,#0x68
        0x600043fa:    ecbd8b0a    ....    VPOP     {d8-d12}
        0x600043fe:    b004        ..      ADD      sp,sp,#0x10
        0x60004400:    e8bd8df0    ....    POP      {r4-r8,r10,r11,pc}
        0x60004404:    e018        ..      B        0x60004438 ; __hardfp_pow + 368
        0x60004406:    ed9fabbc    ....    VLDR     d10,[pc,#752] ; [0x600046f8] = 0
        0x6000440a:    ed9f8bbd    ....    VLDR     d8,[pc,#756] ; [0x60004700] = 0
        0x6000440e:    2800        .(      CMP      r0,#0
        0x60004410:    d17d        }.      BNE      0x6000450e ; __hardfp_pow + 582
        0x60004412:    48b6        .H      LDR      r0,[pc,#728] ; [0x600046ec] = 0x7ff00000
        0x60004414:    4580        .E      CMP      r8,r0
        0x60004416:    d11c        ..      BNE      0x60004452 ; __hardfp_pow + 394
        0x60004418:    f1054080    ...@    ADD      r0,r5,#0x40000000
        0x6000441c:    f5101080    ....    ADDS     r0,r0,#0x100000
        0x60004420:    bf08        ..      IT       EQ
        0x60004422:    f1ba0f00    ....    CMPEQ    r10,#0
        0x60004426:    d007        ..      BEQ      0x60004438 ; __hardfp_pow + 368
        0x60004428:    45b3        .E      CMP      r11,r6
        0x6000442a:    dc08        ..      BGT      0x6000443e ; __hardfp_pow + 374
        0x6000442c:    2c00        .,      CMP      r4,#0
        0x6000442e:    bfa8        ..      IT       GE
        0x60004430:    ed9d0b26    ..&.    VLDRGE   d0,[sp,#0x98]
        0x60004434:    dae0        ..      BGE      0x600043f8 ; __hardfp_pow + 304
        0x60004436:    e007        ..      B        0x60004448 ; __hardfp_pow + 384
        0x60004438:    eeb00b49    ..I.    VMOV.F64 d0,d9
        0x6000443c:    e7dc        ..      B        0x600043f8 ; __hardfp_pow + 304
        0x6000443e:    2c00        .,      CMP      r4,#0
        0x60004440:    bfb8        ..      IT       LT
        0x60004442:    ed9d0b26    ..&.    VLDRLT   d0,[sp,#0x98]
        0x60004446:    dbd5        ..      BLT      0x600043f4 ; __hardfp_pow + 300
        0x60004448:    48af        .H      LDR      r0,[pc,#700] ; [0x60004708] = 0xd72
        0x6000444a:    4478        xD      ADD      r0,r0,pc
        0x6000444c:    ed900b00    ....    VLDR     d0,[r0,#0]
        0x60004450:    e7d2        ..      B        0x600043f8 ; __hardfp_pow + 304
        0x60004452:    45d8        .E      CMP      r8,r11
        0x60004454:    d148        H.      BNE      0x600044e8 ; __hardfp_pow + 544
        0x60004456:    2c00        .,      CMP      r4,#0
        0x60004458:    da43        C.      BGE      0x600044e2 ; __hardfp_pow + 538
        0x6000445a:    b12e        ..      CBZ      r6,0x60004468 ; __hardfp_pow + 416
        0x6000445c:    4286        .B      CMP      r6,r0
        0x6000445e:    d13a        :.      BNE      0x600044d6 ; __hardfp_pow + 526
        0x60004460:    f1ba0f00    ....    CMP      r10,#0
        0x60004464:    d13d        =.      BNE      0x600044e2 ; __hardfp_pow + 538
        0x60004466:    e026        &.      B        0x600044b6 ; __hardfp_pow + 494
        0x60004468:    f1ba0f00    ....    CMP      r10,#0
        0x6000446c:    d013        ..      BEQ      0x60004496 ; __hardfp_pow + 462
        0x6000446e:    2002        .       MOVS     r0,#2
        0x60004470:    f000fc26    ..&.    BL       __set_errno ; 0x60004cc0
        0x60004474:    f000fbfc    ....    BL       __mathlib_dbl_overflow ; 0x60004c70
        0x60004478:    ed8d0b02    ....    VSTR     d0,[sp,#8]
        0x6000447c:    ed9d0b24    ..$.    VLDR     d0,[sp,#0x90]
        0x60004480:    ed8d0b00    ....    VSTR     d0,[sp,#0]
        0x60004484:    ee100a90    ....    VMOV     r0,s1
        0x60004488:    9903        ..      LDR      r1,[sp,#0xc]
        0x6000448a:    f361001e    a...    BFI      r0,r1,#0,#31
        0x6000448e:    9003        ..      STR      r0,[sp,#0xc]
        0x60004490:    ed9d0b02    ....    VLDR     d0,[sp,#8]
        0x60004494:    e7b0        ..      B        0x600043f8 ; __hardfp_pow + 304
        0x60004496:    ed8dab02    ....    VSTR     d10,[sp,#8]
        0x6000449a:    ed9d0b24    ..$.    VLDR     d0,[sp,#0x90]
        0x6000449e:    ee1a1a90    ....    VMOV     r1,s21
        0x600044a2:    ee100a90    ....    VMOV     r0,s1
        0x600044a6:    ed8d0b00    ....    VSTR     d0,[sp,#0]
        0x600044aa:    f361001e    a...    BFI      r0,r1,#0,#31
        0x600044ae:    9003        ..      STR      r0,[sp,#0xc]
        0x600044b0:    ed9d0b02    ....    VLDR     d0,[sp,#8]
        0x600044b4:    e7a0        ..      B        0x600043f8 ; __hardfp_pow + 304
        0x600044b6:    ed8d8b02    ....    VSTR     d8,[sp,#8]
        0x600044ba:    ed9d0b24    ..$.    VLDR     d0,[sp,#0x90]
        0x600044be:    ee181a90    ....    VMOV     r1,s17
        0x600044c2:    ee100a90    ....    VMOV     r0,s1
        0x600044c6:    ed8d0b00    ....    VSTR     d0,[sp,#0]
        0x600044ca:    f361001e    a...    BFI      r0,r1,#0,#31
        0x600044ce:    9003        ..      STR      r0,[sp,#0xc]
        0x600044d0:    ed9d0b02    ....    VLDR     d0,[sp,#8]
        0x600044d4:    e790        ..      B        0x600043f8 ; __hardfp_pow + 304
        0x600044d6:    da04        ..      BGE      0x600044e2 ; __hardfp_pow + 538
        0x600044d8:    ed9d1b24    ..$.    VLDR     d1,[sp,#0x90]
        0x600044dc:    ee890b01    ....    VDIV.F64 d0,d9,d1
        0x600044e0:    e78a        ..      B        0x600043f8 ; __hardfp_pow + 304
        0x600044e2:    ed9d0b24    ..$.    VLDR     d0,[sp,#0x90]
        0x600044e6:    e787        ..      B        0x600043f8 ; __hardfp_pow + 304
        0x600044e8:    4286        .B      CMP      r6,r0
        0x600044ea:    da1a        ..      BGE      0x60004522 ; __hardfp_pow + 602
        0x600044ec:    f1b44f80    ...O    CMP      r4,#0x40000000
        0x600044f0:    bf04        ..      ITT      EQ
        0x600044f2:    ed9d0b24    ..$.    VLDREQ   d0,[sp,#0x90]
        0x600044f6:    ee200b00     ...    VMULEQ.F64 d0,d0,d0
        0x600044fa:    f43faf7d    ?.}.    BEQ      0x600043f8 ; __hardfp_pow + 304
        0x600044fe:    f1a45000    ...P    SUB      r0,r4,#0x20000000
        0x60004502:    f1b050ff    ...P    SUBS     r0,r0,#0x1fe00000
        0x60004506:    d10c        ..      BNE      0x60004522 ; __hardfp_pow + 602
        0x60004508:    2d00        .-      CMP      r5,#0
        0x6000450a:    db0a        ..      BLT      0x60004522 ; __hardfp_pow + 602
        0x6000450c:    e000        ..      B        0x60004510 ; __hardfp_pow + 584
        0x6000450e:    e008        ..      B        0x60004522 ; __hardfp_pow + 602
        0x60004510:    ed9d0b24    ..$.    VLDR     d0,[sp,#0x90]
        0x60004514:    ec510b10    Q...    VMOV     r0,r1,d0
        0x60004518:    f000fd92    ....    BL       sqrt ; 0x60005040
        0x6000451c:    ec410b10    A...    VMOV     d0,r0,r1
        0x60004520:    e76a        j.      B        0x600043f8 ; __hardfp_pow + 304
        0x60004522:    ed9d0b24    ..$.    VLDR     d0,[sp,#0x90]
        0x60004526:    ec510b10    Q...    VMOV     r0,r1,d0
        0x6000452a:    f000fbd8    ....    BL       fabs ; 0x60004cde
        0x6000452e:    f1ba0f00    ....    CMP      r10,#0
        0x60004532:    e9cd010e    ....    STRD     r0,r1,[sp,#0x38]
        0x60004536:    d140        @.      BNE      0x600045ba ; __hardfp_pow + 754
        0x60004538:    ed9f0b75    ..u.    VLDR     d0,[pc,#468] ; [0x60004710] = 0
        0x6000453c:    b346        F.      CBZ      r6,0x60004590 ; __hardfp_pow + 712
        0x6000453e:    f1a640e0    ...@    SUB      r0,r6,#0x70000000
        0x60004542:    f1b0607f    ...`    SUBS     r0,r0,#0xff00000
        0x60004546:    d00e        ..      BEQ      0x60004566 ; __hardfp_pow + 670
        0x60004548:    455e        ^E      CMP      r6,r11
        0x6000454a:    d136        6.      BNE      0x600045ba ; __hardfp_pow + 754
        0x6000454c:    2d00        .-      CMP      r5,#0
        0x6000454e:    da00        ..      BGE      0x60004552 ; __hardfp_pow + 650
        0x60004550:    b397        ..      CBZ      r7,0x600045b8 ; __hardfp_pow + 752
        0x60004552:    2f02        ./      CMP      r7,#2
        0x60004554:    bf0c        ..      ITE      EQ
        0x60004556:    2001        .       MOVEQ    r0,#1
        0x60004558:    f04f30ff    O..0    MOVNE    r0,#0xffffffff
        0x6000455c:    ee000a10    ....    VMOV     s0,r0
        0x60004560:    eeb80bc0    ....    VCVT.F64.S32 d0,s0
        0x60004564:    e748        H.      B        0x600043f8 ; __hardfp_pow + 304
        0x60004566:    2d00        .-      CMP      r5,#0
        0x60004568:    dd01        ..      BLE      0x6000456e ; __hardfp_pow + 678
        0x6000456a:    2c00        .,      CMP      r4,#0
        0x6000456c:    da0d        ..      BGE      0x6000458a ; __hardfp_pow + 706
        0x6000456e:    2d00        .-      CMP      r5,#0
        0x60004570:    dd01        ..      BLE      0x60004576 ; __hardfp_pow + 686
        0x60004572:    2c00        .,      CMP      r4,#0
        0x60004574:    db1d        ..      BLT      0x600045b2 ; __hardfp_pow + 746
        0x60004576:    2d00        .-      CMP      r5,#0
        0x60004578:    da14        ..      BGE      0x600045a4 ; __hardfp_pow + 732
        0x6000457a:    2c00        .,      CMP      r4,#0
        0x6000457c:    db12        ..      BLT      0x600045a4 ; __hardfp_pow + 732
        0x6000457e:    2f01        ./      CMP      r7,#1
        0x60004580:    bf08        ..      IT       EQ
        0x60004582:    ed9f0b65    ..e.    VLDREQ   d0,[pc,#404] ; [0x60004718] = 0
        0x60004586:    f43faf37    ?.7.    BEQ      0x600043f8 ; __hardfp_pow + 304
        0x6000458a:    eeb00b4a    ..J.    VMOV.F64 d0,d10
        0x6000458e:    e733        3.      B        0x600043f8 ; __hardfp_pow + 304
        0x60004590:    2f02        ./      CMP      r7,#2
        0x60004592:    bf18        ..      IT       NE
        0x60004594:    2d00        .-      CMPNE    r5,#0
        0x60004596:    d00c        ..      BEQ      0x600045b2 ; __hardfp_pow + 746
        0x60004598:    2f01        ./      CMP      r7,#1
        0x6000459a:    d10a        ..      BNE      0x600045b2 ; __hardfp_pow + 746
        0x6000459c:    2d00        .-      CMP      r5,#0
        0x6000459e:    f6ffaf2b    ..+.    BLT      0x600043f8 ; __hardfp_pow + 304
        0x600045a2:    e006        ..      B        0x600045b2 ; __hardfp_pow + 746
        0x600045a4:    2d00        .-      CMP      r5,#0
        0x600045a6:    bfb8        ..      IT       LT
        0x600045a8:    2c00        .,      CMPLT    r4,#0
        0x600045aa:    da06        ..      BGE      0x600045ba ; __hardfp_pow + 754
        0x600045ac:    2f01        ./      CMP      r7,#1
        0x600045ae:    f43faf23    ?.#.    BEQ      0x600043f8 ; __hardfp_pow + 304
        0x600045b2:    eeb00b48    ..H.    VMOV.F64 d0,d8
        0x600045b6:    e71f        ..      B        0x600043f8 ; __hardfp_pow + 304
        0x600045b8:    e019        ..      B        0x600045ee ; __hardfp_pow + 806
        0x600045ba:    2001        .       MOVS     r0,#1
        0x600045bc:    eb0070e5    ...p    ADD      r0,r0,r5,ASR #31
        0x600045c0:    ea500107    P...    ORRS     r1,r0,r7
        0x600045c4:    d013        ..      BEQ      0x600045ee ; __hardfp_pow + 806
        0x600045c6:    1e79        y.      SUBS     r1,r7,#1
        0x600045c8:    eeb08b49    ..I.    VMOV.F64 d8,d9
        0x600045cc:    4308        .C      ORRS     r0,r0,r1
        0x600045ce:    bf08        ..      IT       EQ
        0x600045d0:    ed9f8b53    ..S.    VLDREQ   d8,[pc,#332] ; [0x60004720] = 0
        0x600045d4:    4854        TH      LDR      r0,[pc,#336] ; [0x60004728] = 0x41e00000
        0x600045d6:    2500        .%      MOVS     r5,#0
        0x600045d8:    4580        .E      CMP      r8,r0
        0x600045da:    dd7a        z.      BLE      0x600046d2 ; __hardfp_pow + 1034
        0x600045dc:    4953        SI      LDR      r1,[pc,#332] ; [0x6000472c] = 0x43f00000
        0x600045de:    4854        TH      LDR      r0,[pc,#336] ; [0x60004730] = 0x3fefffff
        0x600045e0:    4588        .E      CMP      r8,r1
        0x600045e2:    dd14        ..      BLE      0x6000460e ; __hardfp_pow + 838
        0x600045e4:    42b0        .B      CMP      r0,r6
        0x600045e6:    db0d        ..      BLT      0x60004604 ; __hardfp_pow + 828
        0x600045e8:    2c00        .,      CMP      r4,#0
        0x600045ea:    db19        ..      BLT      0x60004620 ; __hardfp_pow + 856
        0x600045ec:    e02c        ,.      B        0x60004648 ; __hardfp_pow + 896
        0x600045ee:    2001        .       MOVS     r0,#1
        0x600045f0:    f000fb66    ..f.    BL       __set_errno ; 0x60004cc0
        0x600045f4:    b01a        ..      ADD      sp,sp,#0x68
        0x600045f6:    ecbd8b0a    ....    VPOP     {d8-d12}
        0x600045fa:    b004        ..      ADD      sp,sp,#0x10
        0x600045fc:    e8bd4df0    ...M    POP      {r4-r8,r10,r11,lr}
        0x60004600:    f000bb2a    ..*.    B.W      __mathlib_dbl_invalid ; 0x60004c58
        0x60004604:    45b3        .E      CMP      r11,r6
        0x60004606:    dc02        ..      BGT      0x6000460e ; __hardfp_pow + 838
        0x60004608:    2c00        .,      CMP      r4,#0
        0x6000460a:    dc09        ..      BGT      0x60004620 ; __hardfp_pow + 856
        0x6000460c:    e01c        ..      B        0x60004648 ; __hardfp_pow + 896
        0x6000460e:    4286        .B      CMP      r6,r0
        0x60004610:    da02        ..      BGE      0x60004618 ; __hardfp_pow + 848
        0x60004612:    2c00        .,      CMP      r4,#0
        0x60004614:    da18        ..      BGE      0x60004648 ; __hardfp_pow + 896
        0x60004616:    e003        ..      B        0x60004620 ; __hardfp_pow + 856
        0x60004618:    455e        ^E      CMP      r6,r11
        0x6000461a:    dd28        (.      BLE      0x6000466e ; __hardfp_pow + 934
        0x6000461c:    2c00        .,      CMP      r4,#0
        0x6000461e:    dd13        ..      BLE      0x60004648 ; __hardfp_pow + 896
        0x60004620:    2002        .       MOVS     r0,#2
        0x60004622:    f000fb4d    ..M.    BL       __set_errno ; 0x60004cc0
        0x60004626:    f000fb23    ..#.    BL       __mathlib_dbl_overflow ; 0x60004c70
        0x6000462a:    ed8d0b02    ....    VSTR     d0,[sp,#8]
        0x6000462e:    ee280b0a    (...    VMUL.F64 d0,d8,d10
        0x60004632:    ed8d0b00    ....    VSTR     d0,[sp,#0]
        0x60004636:    ee100a90    ....    VMOV     r0,s1
        0x6000463a:    9903        ..      LDR      r1,[sp,#0xc]
        0x6000463c:    f361001e    a...    BFI      r0,r1,#0,#31
        0x60004640:    9003        ..      STR      r0,[sp,#0xc]
        0x60004642:    ed9d0b02    ....    VLDR     d0,[sp,#8]
        0x60004646:    e6d7        ..      B        0x600043f8 ; __hardfp_pow + 304
        0x60004648:    2002        .       MOVS     r0,#2
        0x6000464a:    f000fb39    ..9.    BL       __set_errno ; 0x60004cc0
        0x6000464e:    f000fb1b    ....    BL       __mathlib_dbl_underflow ; 0x60004c88
        0x60004652:    ee101a90    ....    VMOV     r1,s1
        0x60004656:    ee180a90    ....    VMOV     r0,s17
        0x6000465a:    ed8d0b02    ....    VSTR     d0,[sp,#8]
        0x6000465e:    ed8d8b00    ....    VSTR     d8,[sp,#0]
        0x60004662:    f361001e    a...    BFI      r0,r1,#0,#31
        0x60004666:    9003        ..      STR      r0,[sp,#0xc]
        0x60004668:    ed9d0b02    ....    VLDR     d0,[sp,#8]
        0x6000466c:    e6c4        ..      B        0x600043f8 ; __hardfp_pow + 304
        0x6000466e:    ed9d0b0e    ....    VLDR     d0,[sp,#0x38]
        0x60004672:    ed9f3b31    ..1;    VLDR     d3,[pc,#196] ; [0x60004738] = 0
        0x60004676:    ee300b49    0.I.    VSUB.F64 d0,d0,d9
        0x6000467a:    ed8d0b04    ....    VSTR     d0,[sp,#0x10]
        0x6000467e:    ee202b00     ..+    VMUL.F64 d2,d0,d0
        0x60004682:    ed9d1b04    ....    VLDR     d1,[sp,#0x10]
        0x60004686:    ed9f0b2e    ....    VLDR     d0,[pc,#184] ; [0x60004740] = 0x55555555
        0x6000468a:    ee010b43    ..C.    VMLS.F64 d0,d1,d3
        0x6000468e:    ed9d3b04    ...;    VLDR     d3,[sp,#0x10]
        0x60004692:    ed9f1b2d    ..-.    VLDR     d1,[pc,#180] ; [0x60004748] = 0
        0x60004696:    ee031b40    ..@.    VMLS.F64 d1,d3,d0
        0x6000469a:    ed9d0b04    ....    VLDR     d0,[sp,#0x10]
        0x6000469e:    ed9f3b2e    ...;    VLDR     d3,[pc,#184] ; [0x60004758] = 0xf85ddf44
        0x600046a2:    ee222b01    "..+    VMUL.F64 d2,d2,d1
        0x600046a6:    ed9f1b2a    ..*.    VLDR     d1,[pc,#168] ; [0x60004750] = 0x60000000
        0x600046aa:    ee201b01     ...    VMUL.F64 d1,d0,d1
        0x600046ae:    ee200b03     ...    VMUL.F64 d0,d0,d3
        0x600046b2:    ed9f3b2b    ..+;    VLDR     d3,[pc,#172] ; [0x60004760] = 0x652b82fe
        0x600046b6:    ee020b43    ..C.    VMLS.F64 d0,d2,d3
        0x600046ba:    ee312b00    1..+    VADD.F64 d2,d1,d0
        0x600046be:    ed8d2b02    ...+    VSTR     d2,[sp,#8]
        0x600046c2:    9502        ..      STR      r5,[sp,#8]
        0x600046c4:    ed9d2b02    ...+    VLDR     d2,[sp,#8]
        0x600046c8:    ee321b41    2.A.    VSUB.F64 d1,d2,d1
        0x600046cc:    ee301b41    0.A.    VSUB.F64 d1,d0,d1
        0x600046d0:    e121        !.      B        0x60004916 ; __hardfp_pow + 1614
        0x600046d2:    e049        I.      B        0x60004768 ; __hardfp_pow + 1184
    $d
        0x600046d4:    00000000    ....    DCD    0
        0x600046d8:    001fffff    ....    DCD    2097151
        0x600046dc:    000fffff    ....    DCD    1048575
        0x600046e0:    00000000    ....    DCD    0
        0x600046e4:    3ff00000    ...?    DCD    1072693248
        0x600046e8:    3ff00000    ...?    DCD    1072693248
        0x600046ec:    7ff00000    ....    DCD    2146435072
        0x600046f0:    43400000    ..@C    DCD    1128267776
        0x600046f4:    fffffc01    ....    DCD    4294966273
        0x600046f8:    00000000    ....    DCD    0
        0x600046fc:    7ff00000    ....    DCD    2146435072
        0x60004700:    00000000    ....    DCD    0
        0x60004704:    00000000    ....    DCD    0
        0x60004708:    00000d72    r...    DCD    3442
        0x6000470c:    00000000    ....    DCD    0
        0x60004710:    00000000    ....    DCD    0
        0x60004714:    80000000    ....    DCD    2147483648
        0x60004718:    00000000    ....    DCD    0
        0x6000471c:    fff00000    ....    DCD    4293918720
        0x60004720:    00000000    ....    DCD    0
        0x60004724:    bff00000    ....    DCD    3220176896
        0x60004728:    41e00000    ...A    DCD    1105199104
        0x6000472c:    43f00000    ...C    DCD    1139802112
        0x60004730:    3fefffff    ...?    DCD    1072693247
        0x60004734:    00000000    ....    DCD    0
        0x60004738:    00000000    ....    DCD    0
        0x6000473c:    3fd00000    ...?    DCD    1070596096
        0x60004740:    55555555    UUUU    DCD    1431655765
        0x60004744:    3fd55555    UU.?    DCD    1070945621
        0x60004748:    00000000    ....    DCD    0
        0x6000474c:    3fe00000    ...?    DCD    1071644672
        0x60004750:    60000000    ...`    DCD    1610612736
        0x60004754:    3ff71547    G..?    DCD    1073157447
        0x60004758:    f85ddf44    D.].    DCD    4166901572
        0x6000475c:    3e54ae0b    ..T>    DCD    1045736971
        0x60004760:    652b82fe    ..+e    DCD    1697350398
        0x60004764:    3ff71547    G..?    DCD    1073157447
    $t
        0x60004768:    2000        .       MOVS     r0,#0
        0x6000476a:    f5b61f80    ....    CMP      r6,#0x100000
        0x6000476e:    da0b        ..      BGE      0x60004788 ; __hardfp_pow + 1216
        0x60004770:    ed9d0b0e    ....    VLDR     d0,[sp,#0x38]
        0x60004774:    ed9f1bec    ....    VLDR     d1,[pc,#944] ; [0x60004b28] = 0
        0x60004778:    f06f0034    o.4.    MVN      r0,#0x34
        0x6000477c:    ee200b01     ...    VMUL.F64 d0,d0,d1
        0x60004780:    ee106a90    ...j    VMOV     r6,s1
        0x60004784:    ed8d0b0e    ....    VSTR     d0,[sp,#0x38]
        0x60004788:    4ae9        .J      LDR      r2,[pc,#932] ; [0x60004b30] = 0x3988e
        0x6000478a:    eb005026    ..&P    ADD      r0,r0,r6,ASR #20
        0x6000478e:    f3c60113    ....    UBFX     r1,r6,#0,#20
        0x60004792:    f2a037ff    ...7    SUB      r7,r0,#0x3ff
        0x60004796:    f041607f    A..`    ORR      r0,r1,#0xff00000
        0x6000479a:    f0405040    @.@P    ORR      r0,r0,#0x30000000
        0x6000479e:    4291        .B      CMP      r1,r2
        0x600047a0:    bfd8        ..      IT       LE
        0x600047a2:    2400        .$      MOVLE    r4,#0
        0x600047a4:    dd08        ..      BLE      0x600047b8 ; __hardfp_pow + 1264
        0x600047a6:    4ae3        .J      LDR      r2,[pc,#908] ; [0x60004b34] = 0xbb67a
        0x600047a8:    428a        .B      CMP      r2,r1
        0x600047aa:    bfc8        ..      IT       GT
        0x600047ac:    2401        .$      MOVGT    r4,#1
        0x600047ae:    dc03        ..      BGT      0x600047b8 ; __hardfp_pow + 1264
        0x600047b0:    2400        .$      MOVS     r4,#0
        0x600047b2:    f5a01080    ....    SUB      r0,r0,#0x100000
        0x600047b6:    1c7f        ..      ADDS     r7,r7,#1
        0x600047b8:    49df        .I      LDR      r1,[pc,#892] ; [0x60004b38] = 0x97a
        0x600047ba:    4479        yD      ADD      r1,r1,pc
        0x600047bc:    eb0101c4    ....    ADD      r1,r1,r4,LSL #3
        0x600047c0:    900f        ..      STR      r0,[sp,#0x3c]
        0x600047c2:    ed911b00    ....    VLDR     d1,[r1,#0]
        0x600047c6:    ed9d2b0e    ...+    VLDR     d2,[sp,#0x38]
        0x600047ca:    ed9d0b0e    ....    VLDR     d0,[sp,#0x38]
        0x600047ce:    49db        .I      LDR      r1,[pc,#876] ; [0x60004b3c] = 0x9d8
        0x600047d0:    ee313b02    1..;    VADD.F64 d3,d1,d2
        0x600047d4:    ee300b41    0.A.    VSUB.F64 d0,d0,d1
        0x600047d8:    ee892b03    ...+    VDIV.F64 d2,d9,d3
        0x600047dc:    ee20ab02     ...    VMUL.F64 d10,d0,d2
        0x600047e0:    ed8dab02    ....    VSTR     d10,[sp,#8]
        0x600047e4:    4479        yD      ADD      r1,r1,pc
        0x600047e6:    9502        ..      STR      r5,[sp,#8]
        0x600047e8:    ed913b00    ...;    VLDR     d3,[r1,#0]
        0x600047ec:    f04f5100    O..Q    MOV      r1,#0x20000000
        0x600047f0:    ea410060    A.`.    ORR      r0,r1,r0,ASR #1
        0x600047f4:    eb004084    ...@    ADD      r0,r0,r4,LSL #18
        0x600047f8:    ed8d3b04    ...;    VSTR     d3,[sp,#0x10]
        0x600047fc:    f5002000    ...     ADD      r0,r0,#0x80000
        0x60004800:    9005        ..      STR      r0,[sp,#0x14]
        0x60004802:    ed9d3b04    ...;    VLDR     d3,[sp,#0x10]
        0x60004806:    ed9d4b04    ...K    VLDR     d4,[sp,#0x10]
        0x6000480a:    ee2acb0a    *...    VMUL.F64 d12,d10,d10
        0x6000480e:    ee331b41    3.A.    VSUB.F64 d1,d3,d1
        0x60004812:    ed9d3b0e    ...;    VLDR     d3,[sp,#0x38]
        0x60004816:    48ca        .H      LDR      r0,[pc,#808] ; [0x60004b40] = 0x932
        0x60004818:    2106        .!      MOVS     r1,#6
        0x6000481a:    ee331b41    3.A.    VSUB.F64 d1,d3,d1
        0x6000481e:    ed9d3b02    ...;    VLDR     d3,[sp,#8]
        0x60004822:    ee030b44    ..D.    VMLS.F64 d0,d3,d4
        0x60004826:    ee030b41    ..A.    VMLS.F64 d0,d3,d1
        0x6000482a:    ee20bb02     ...    VMUL.F64 d11,d0,d2
        0x6000482e:    eeb00b4c    ..L.    VMOV.F64 d0,d12
        0x60004832:    4478        xD      ADD      r0,r0,pc
        0x60004834:    f000f9c4    ....    BL       __kernel_poly ; 0x60004bc0
        0x60004838:    ee2c1b0c    ,...    VMUL.F64 d1,d12,d12
        0x6000483c:    ee200b01     ...    VMUL.F64 d0,d0,d1
        0x60004840:    ed9d1b02    ....    VLDR     d1,[sp,#8]
        0x60004844:    ee311b0a    1...    VADD.F64 d1,d1,d10
        0x60004848:    ee0b0b01    ....    VMLA.F64 d0,d11,d1
        0x6000484c:    ed9d1b02    ....    VLDR     d1,[sp,#8]
        0x60004850:    ee211b01    !...    VMUL.F64 d1,d1,d1
        0x60004854:    ed9f2bbc    ...+    VLDR     d2,[pc,#752] ; [0x60004b48] = 0
        0x60004858:    ee313b02    1..;    VADD.F64 d3,d1,d2
        0x6000485c:    ee333b00    3..;    VADD.F64 d3,d3,d0
        0x60004860:    ed8d3b04    ...;    VSTR     d3,[sp,#0x10]
        0x60004864:    9504        ..      STR      r5,[sp,#0x10]
        0x60004866:    ed9d3b04    ...;    VLDR     d3,[sp,#0x10]
        0x6000486a:    ee332b42    3.B+    VSUB.F64 d2,d3,d2
        0x6000486e:    ee321b41    2.A.    VSUB.F64 d1,d2,d1
        0x60004872:    ee302b41    0.A+    VSUB.F64 d2,d0,d1
        0x60004876:    ed9d0b02    ....    VLDR     d0,[sp,#8]
        0x6000487a:    ed9d1b04    ....    VLDR     d1,[sp,#0x10]
        0x6000487e:    ee201b01     ...    VMUL.F64 d1,d0,d1
        0x60004882:    ed9d0b04    ....    VLDR     d0,[sp,#0x10]
        0x60004886:    ee2b0b00    +...    VMUL.F64 d0,d11,d0
        0x6000488a:    ee020b0a    ....    VMLA.F64 d0,d2,d10
        0x6000488e:    ee312b00    1..+    VADD.F64 d2,d1,d0
        0x60004892:    ed8d2b02    ...+    VSTR     d2,[sp,#8]
        0x60004896:    9502        ..      STR      r5,[sp,#8]
        0x60004898:    ed9d2b02    ...+    VLDR     d2,[sp,#8]
        0x6000489c:    ee321b41    2.A.    VSUB.F64 d1,d2,d1
        0x600048a0:    ee300b41    0.A.    VSUB.F64 d0,d0,d1
        0x600048a4:    ed9d1b02    ....    VLDR     d1,[sp,#8]
        0x600048a8:    ed9f2ba9    ...+    VLDR     d2,[pc,#676] ; [0x60004b50] = 0xe0000000
        0x600048ac:    ee211b02    !...    VMUL.F64 d1,d1,d2
        0x600048b0:    ed9d2b02    ...+    VLDR     d2,[sp,#8]
        0x600048b4:    ed9f3ba8    ...;    VLDR     d3,[pc,#672] ; [0x60004b58] = 0x145b01f5
        0x600048b8:    ee222b03    "..+    VMUL.F64 d2,d2,d3
        0x600048bc:    ed9f3ba8    ...;    VLDR     d3,[pc,#672] ; [0x60004b60] = 0xdc3a03fd
        0x600048c0:    48a9        .H      LDR      r0,[pc,#676] ; [0x60004b68] = 0x88e
        0x600048c2:    ee002b03    ...+    VMLA.F64 d2,d0,d3
        0x600048c6:    4478        xD      ADD      r0,r0,pc
        0x600048c8:    eb0000c4    ....    ADD      r0,r0,r4,LSL #3
        0x600048cc:    ed900b00    ....    VLDR     d0,[r0,#0]
        0x600048d0:    48a6        .H      LDR      r0,[pc,#664] ; [0x60004b6c] = 0x85e
        0x600048d2:    ee320b00    2...    VADD.F64 d0,d2,d0
        0x600048d6:    ee027a10    ...z    VMOV     s4,r7
        0x600048da:    eeb82bc2    ...+    VCVT.F64.S32 d2,s4
        0x600048de:    ed8d2b04    ...+    VSTR     d2,[sp,#0x10]
        0x600048e2:    ee313b00    1..;    VADD.F64 d3,d1,d0
        0x600048e6:    4478        xD      ADD      r0,r0,pc
        0x600048e8:    eb0000c4    ....    ADD      r0,r0,r4,LSL #3
        0x600048ec:    ed9d4b04    ...K    VLDR     d4,[sp,#0x10]
        0x600048f0:    ed902b00    ...+    VLDR     d2,[r0,#0]
        0x600048f4:    ee333b02    3..;    VADD.F64 d3,d3,d2
        0x600048f8:    ee333b04    3..;    VADD.F64 d3,d3,d4
        0x600048fc:    ed8d3b02    ...;    VSTR     d3,[sp,#8]
        0x60004900:    9502        ..      STR      r5,[sp,#8]
        0x60004902:    ed9d3b02    ...;    VLDR     d3,[sp,#8]
        0x60004906:    ee333b44    3.D;    VSUB.F64 d3,d3,d4
        0x6000490a:    ee332b42    3.B+    VSUB.F64 d2,d3,d2
        0x6000490e:    ee321b41    2.A.    VSUB.F64 d1,d2,d1
        0x60004912:    ee301b41    0.A.    VSUB.F64 d1,d0,d1
        0x60004916:    ed9d0b26    ..&.    VLDR     d0,[sp,#0x98]
        0x6000491a:    4a95        .J      LDR      r2,[pc,#596] ; [0x60004b70] = 0x40900000
        0x6000491c:    ed8d0b00    ....    VSTR     d0,[sp,#0]
        0x60004920:    9500        ..      STR      r5,[sp,#0]
        0x60004922:    ed9d0b26    ..&.    VLDR     d0,[sp,#0x98]
        0x60004926:    ed9d2b00    ...+    VLDR     d2,[sp,#0]
        0x6000492a:    ee300b42    0.B.    VSUB.F64 d0,d0,d2
        0x6000492e:    ed9d2b02    ...+    VLDR     d2,[sp,#8]
        0x60004932:    ee200b02     ...    VMUL.F64 d0,d0,d2
        0x60004936:    ed9d2b26    ..&+    VLDR     d2,[sp,#0x98]
        0x6000493a:    ee020b01    ....    VMLA.F64 d0,d2,d1
        0x6000493e:    ed9d1b00    ....    VLDR     d1,[sp,#0]
        0x60004942:    ed9d2b02    ...+    VLDR     d2,[sp,#8]
        0x60004946:    ee211b02    !...    VMUL.F64 d1,d1,d2
        0x6000494a:    ed8d1b02    ....    VSTR     d1,[sp,#8]
        0x6000494e:    ee301b01    0...    VADD.F64 d1,d0,d1
        0x60004952:    ee110a90    ....    VMOV     r0,s3
        0x60004956:    ee111a10    ....    VMOV     r1,s2
        0x6000495a:    ed8d1b00    ....    VSTR     d1,[sp,#0]
        0x6000495e:    4290        .B      CMP      r0,r2
        0x60004960:    db24        $.      BLT      0x600049ac ; __hardfp_pow + 1764
        0x60004962:    1a82        ..      SUBS     r2,r0,r2
        0x60004964:    4311        .C      ORRS     r1,r1,r2
        0x60004966:    d10e        ..      BNE      0x60004986 ; __hardfp_pow + 1726
        0x60004968:    ed9f1b83    ....    VLDR     d1,[pc,#524] ; [0x60004b78] = 0x652b82fe
        0x6000496c:    ed9d2b00    ...+    VLDR     d2,[sp,#0]
        0x60004970:    ed9d3b02    ...;    VLDR     d3,[sp,#8]
        0x60004974:    ee301b01    0...    VADD.F64 d1,d0,d1
        0x60004978:    ee322b43    2.C+    VSUB.F64 d2,d2,d3
        0x6000497c:    eeb41bc2    ....    VCMPE.F64 d1,d2
        0x60004980:    eef1fa10    ....    VMRS     APSR_nzcv,FPSCR
        0x60004984:    dd26        &.      BLE      0x600049d4 ; __hardfp_pow + 1804
        0x60004986:    2002        .       MOVS     r0,#2
        0x60004988:    f000f99a    ....    BL       __set_errno ; 0x60004cc0
        0x6000498c:    f000f970    ..p.    BL       __mathlib_dbl_overflow ; 0x60004c70
        0x60004990:    ee101a90    ....    VMOV     r1,s1
        0x60004994:    ee180a90    ....    VMOV     r0,s17
        0x60004998:    ed8d0b02    ....    VSTR     d0,[sp,#8]
        0x6000499c:    ed8d8b00    ....    VSTR     d8,[sp,#0]
        0x600049a0:    f361001e    a...    BFI      r0,r1,#0,#31
        0x600049a4:    9003        ..      STR      r0,[sp,#0xc]
        0x600049a6:    ed9d0b02    ....    VLDR     d0,[sp,#8]
        0x600049aa:    e525        %.      B        0x600043f8 ; __hardfp_pow + 304
        0x600049ac:    4b74        tK      LDR      r3,[pc,#464] ; [0x60004b80] = 0x4090cc00
        0x600049ae:    f0204200     ..B    BIC      r2,r0,#0x80000000
        0x600049b2:    429a        .B      CMP      r2,r3
        0x600049b4:    d30e        ..      BCC      0x600049d4 ; __hardfp_pow + 1804
        0x600049b6:    4a73        sJ      LDR      r2,[pc,#460] ; [0x60004b84] = 0x3f6f3400
        0x600049b8:    4402        .D      ADD      r2,r2,r0
        0x600049ba:    4311        .C      ORRS     r1,r1,r2
        0x600049bc:    f47fae44    ..D.    BNE      0x60004648 ; __hardfp_pow + 896
        0x600049c0:    ed9d2b02    ...+    VLDR     d2,[sp,#8]
        0x600049c4:    ee311b42    1.B.    VSUB.F64 d1,d1,d2
        0x600049c8:    eeb41bc0    ....    VCMPE.F64 d1,d0
        0x600049cc:    eef1fa10    ....    VMRS     APSR_nzcv,FPSCR
        0x600049d0:    f6bfae3a    ..:.    BGE      0x60004648 ; __hardfp_pow + 896
        0x600049d4:    f0204100     ..A    BIC      r1,r0,#0x80000000
        0x600049d8:    4a6b        kJ      LDR      r2,[pc,#428] ; [0x60004b88] = 0xfffffc01
        0x600049da:    4b6c        lK      LDR      r3,[pc,#432] ; [0x60004b8c] = 0x3fe00000
        0x600049dc:    2400        .$      MOVS     r4,#0
        0x600049de:    eb025221    ..!R    ADD      r2,r2,r1,ASR #20
        0x600049e2:    4299        .B      CMP      r1,r3
        0x600049e4:    bfd8        ..      IT       LE
        0x600049e6:    ed9d1b02    ....    VLDRLE   d1,[sp,#8]
        0x600049ea:    dd27        '.      BLE      0x60004a3c ; __hardfp_pow + 1908
        0x600049ec:    1c51        Q.      ADDS     r1,r2,#1
        0x600049ee:    f44f1280    O...    MOV      r2,#0x100000
        0x600049f2:    fa22f101    "...    LSR      r1,r2,r1
        0x600049f6:    4401        .D      ADD      r1,r1,r0
        0x600049f8:    4b65        eK      LDR      r3,[pc,#404] ; [0x60004b90] = 0x7be
        0x600049fa:    f3c1520a    ...R    UBFX     r2,r1,#20,#11
        0x600049fe:    447b        {D      ADD      r3,r3,pc
        0x60004a00:    f2a232ff    ...2    SUB      r2,r2,#0x3ff
        0x60004a04:    ed931b00    ....    VLDR     d1,[r3,#0]
        0x60004a08:    4b62        bK      LDR      r3,[pc,#392] ; [0x60004b94] = 0xfffff
        0x60004a0a:    ed8d1b04    ....    VSTR     d1,[sp,#0x10]
        0x60004a0e:    40d3        .@      LSRS     r3,r3,r2
        0x60004a10:    ea210303    !...    BIC      r3,r1,r3
        0x60004a14:    f3c10113    ....    UBFX     r1,r1,#0,#20
        0x60004a18:    f4411180    A...    ORR      r1,r1,#0x100000
        0x60004a1c:    f1c20214    ....    RSB      r2,r2,#0x14
        0x60004a20:    fa21f402    !...    LSR      r4,r1,r2
        0x60004a24:    9305        ..      STR      r3,[sp,#0x14]
        0x60004a26:    2800        .(      CMP      r0,#0
        0x60004a28:    bfb8        ..      IT       LT
        0x60004a2a:    4264        dB      RSBLT    r4,r4,#0
        0x60004a2c:    ed9d1b02    ....    VLDR     d1,[sp,#8]
        0x60004a30:    ed9d2b04    ...+    VLDR     d2,[sp,#0x10]
        0x60004a34:    ee311b42    1.B.    VSUB.F64 d1,d1,d2
        0x60004a38:    ed8d1b02    ....    VSTR     d1,[sp,#8]
        0x60004a3c:    ee301b01    0...    VADD.F64 d1,d0,d1
        0x60004a40:    ed8d1b04    ....    VSTR     d1,[sp,#0x10]
        0x60004a44:    9504        ..      STR      r5,[sp,#0x10]
        0x60004a46:    ed9d1b04    ....    VLDR     d1,[sp,#0x10]
        0x60004a4a:    ed9f2b53    ..S+    VLDR     d2,[pc,#332] ; [0x60004b98] = 0
        0x60004a4e:    ed9d3b02    ...;    VLDR     d3,[sp,#8]
        0x60004a52:    ee211b02    !...    VMUL.F64 d1,d1,d2
        0x60004a56:    ed9d2b04    ...+    VLDR     d2,[sp,#0x10]
        0x60004a5a:    ee322b43    2.C+    VSUB.F64 d2,d2,d3
        0x60004a5e:    ee300b42    0.B.    VSUB.F64 d0,d0,d2
        0x60004a62:    ed9f2b4f    ..O+    VLDR     d2,[pc,#316] ; [0x60004ba0] = 0xfefa39ef
        0x60004a66:    ee200b02     ...    VMUL.F64 d0,d0,d2
        0x60004a6a:    ed9d2b04    ...+    VLDR     d2,[sp,#0x10]
        0x60004a6e:    ed9f3b4e    ..N;    VLDR     d3,[pc,#312] ; [0x60004ba8] = 0xca86c39
        0x60004a72:    484f        OH      LDR      r0,[pc,#316] ; [0x60004bb0] = 0x6fe
        0x60004a74:    2105        .!      MOVS     r1,#5
        0x60004a76:    ee020b03    ....    VMLA.F64 d0,d2,d3
        0x60004a7a:    ee312b00    1..+    VADD.F64 d2,d1,d0
        0x60004a7e:    ed8d2b00    ...+    VSTR     d2,[sp,#0]
        0x60004a82:    ee321b41    2.A.    VSUB.F64 d1,d2,d1
        0x60004a86:    ee30ab41    0.A.    VSUB.F64 d10,d0,d1
        0x60004a8a:    ed9d0b00    ....    VLDR     d0,[sp,#0]
        0x60004a8e:    ee200b00     ...    VMUL.F64 d0,d0,d0
        0x60004a92:    ed8d0b04    ....    VSTR     d0,[sp,#0x10]
        0x60004a96:    4478        xD      ADD      r0,r0,pc
        0x60004a98:    f000f892    ....    BL       __kernel_poly ; 0x60004bc0
        0x60004a9c:    ed9d1b00    ....    VLDR     d1,[sp,#0]
        0x60004aa0:    ed9d2b04    ...+    VLDR     d2,[sp,#0x10]
        0x60004aa4:    ee021b40    ..@.    VMLS.F64 d1,d2,d0
        0x60004aa8:    ed8d1b02    ....    VSTR     d1,[sp,#8]
        0x60004aac:    ed9d0b00    ....    VLDR     d0,[sp,#0]
        0x60004ab0:    ee200b01     ...    VMUL.F64 d0,d0,d1
        0x60004ab4:    ed9f2b40    ..@+    VLDR     d2,[pc,#256] ; [0x60004bb8] = 0
        0x60004ab8:    ee312b42    1.B+    VSUB.F64 d2,d1,d2
        0x60004abc:    ee801b02    ....    VDIV.F64 d1,d0,d2
        0x60004ac0:    ed9d2b00    ...+    VLDR     d2,[sp,#0]
        0x60004ac4:    eeb00b4a    ..J.    VMOV.F64 d0,d10
        0x60004ac8:    ee020b0a    ....    VMLA.F64 d0,d2,d10
        0x60004acc:    ee310b40    1.@.    VSUB.F64 d0,d1,d0
        0x60004ad0:    ed9d1b00    ....    VLDR     d1,[sp,#0]
        0x60004ad4:    ee300b41    0.A.    VSUB.F64 d0,d0,d1
        0x60004ad8:    ee390b40    9.@.    VSUB.F64 d0,d9,d0
        0x60004adc:    ee100a90    ....    VMOV     r0,s1
        0x60004ae0:    ed8d0b00    ....    VSTR     d0,[sp,#0]
        0x60004ae4:    eb005004    ...P    ADD      r0,r0,r4,LSL #20
        0x60004ae8:    1501        ..      ASRS     r1,r0,#20
        0x60004aea:    2900        .)      CMP      r1,#0
        0x60004aec:    bfc8        ..      IT       GT
        0x60004aee:    9001        ..      STRGT    r0,[sp,#4]
        0x60004af0:    dc13        ..      BGT      0x60004b1a ; __hardfp_pow + 2130
        0x60004af2:    4622        "F      MOV      r2,r4
        0x60004af4:    ec510b10    Q...    VMOV     r0,r1,d0
        0x60004af8:    f7fdfe9a    ....    BL       __ARM_scalbn ; 0x60002830
        0x60004afc:    f7fffb6b    ..k.    BL       __ARM_fpclassify ; 0x600041d6
        0x60004b00:    2804        .(      CMP      r0,#4
        0x60004b02:    bf08        ..      IT       EQ
        0x60004b04:    f000f8c0    ....    BLEQ     __mathlib_dbl_underflow ; 0x60004c88
        0x60004b08:    4622        "F      MOV      r2,r4
        0x60004b0a:    ed9d0b00    ....    VLDR     d0,[sp,#0]
        0x60004b0e:    ec510b10    Q...    VMOV     r0,r1,d0
        0x60004b12:    f7fdfe8d    ....    BL       __ARM_scalbn ; 0x60002830
        0x60004b16:    e9cd0100    ....    STRD     r0,r1,[sp,#0]
        0x60004b1a:    ed9d0b00    ....    VLDR     d0,[sp,#0]
        0x60004b1e:    ee280b00    (...    VMUL.F64 d0,d8,d0
        0x60004b22:    e469        i.      B        0x600043f8 ; __hardfp_pow + 304
    $d
        0x60004b24:    00000000    ....    DCD    0
        0x60004b28:    00000000    ....    DCD    0
        0x60004b2c:    43400000    ..@C    DCD    1128267776
        0x60004b30:    0003988e    ....    DCD    235662
        0x60004b34:    000bb67a    z...    DCD    767610
        0x60004b38:    0000097a    z...    DCD    2426
        0x60004b3c:    000009d8    ....    DCD    2520
        0x60004b40:    00000932    2...    DCD    2354
        0x60004b44:    00000000    ....    DCD    0
        0x60004b48:    00000000    ....    DCD    0
        0x60004b4c:    40080000    ...@    DCD    1074266112
        0x60004b50:    e0000000    ....    DCD    3758096384
        0x60004b54:    3feec709    ...?    DCD    1072613129
        0x60004b58:    145b01f5    ..[.    DCD    341508597
        0x60004b5c:    be3e2fe0    ./>.    DCD    3191746528
        0x60004b60:    dc3a03fd    ..:.    DCD    3694789629
        0x60004b64:    3feec709    ...?    DCD    1072613129
        0x60004b68:    0000088e    ....    DCD    2190
        0x60004b6c:    0000085e    ^...    DCD    2142
        0x60004b70:    40900000    ...@    DCD    1083179008
        0x60004b74:    00000000    ....    DCD    0
        0x60004b78:    652b82fe    ..+e    DCD    1697350398
        0x60004b7c:    3c971547    G..<    DCD    1016534343
        0x60004b80:    4090cc00    ...@    DCD    1083231232
        0x60004b84:    3f6f3400    .4o?    DCD    1064252416
        0x60004b88:    fffffc01    ....    DCD    4294966273
        0x60004b8c:    3fe00000    ...?    DCD    1071644672
        0x60004b90:    000007be    ....    DCD    1982
        0x60004b94:    000fffff    ....    DCD    1048575
        0x60004b98:    00000000    ....    DCD    0
        0x60004b9c:    3fe62e43    C..?    DCD    1072049731
        0x60004ba0:    fefa39ef    .9..    DCD    4277811695
        0x60004ba4:    3fe62e42    B..?    DCD    1072049730
        0x60004ba8:    0ca86c39    9l..    DCD    212364345
        0x60004bac:    be205c61    a\ .    DCD    3189791841
        0x60004bb0:    000006fe    ....    DCD    1790
        0x60004bb4:    00000000    ....    DCD    0
        0x60004bb8:    00000000    ....    DCD    0
        0x60004bbc:    40000000    ...@    DCD    1073741824
    $t
    i.__kernel_poly
    __kernel_poly
        0x60004bc0:    1e49        I.      SUBS     r1,r1,#1
        0x60004bc2:    eb0002c1    ....    ADD      r2,r0,r1,LSL #3
        0x60004bc6:    eeb01b40    ..@.    VMOV.F64 d1,d0
        0x60004bca:    ed920b00    ....    VLDR     d0,[r2,#0]
        0x60004bce:    f0310206    1...    BICS     r2,r1,#6
        0x60004bd2:    d00d        ..      BEQ      0x60004bf0 ; __kernel_poly + 48
        0x60004bd4:    1e49        I.      SUBS     r1,r1,#1
        0x60004bd6:    eb0002c1    ....    ADD      r2,r0,r1,LSL #3
        0x60004bda:    eeb03b40    ..@;    VMOV.F64 d3,d0
        0x60004bde:    ed922b00    ...+    VLDR     d2,[r2,#0]
        0x60004be2:    f0310206    1...    BICS     r2,r1,#6
        0x60004be6:    eeb00b42    ..B.    VMOV.F64 d0,d2
        0x60004bea:    ee030b01    ....    VMLA.F64 d0,d3,d1
        0x60004bee:    d1f1        ..      BNE      0x60004bd4 ; __kernel_poly + 20
        0x60004bf0:    2902        .)      CMP      r1,#2
        0x60004bf2:    d014        ..      BEQ      0x60004c1e ; __kernel_poly + 94
        0x60004bf4:    2904        .)      CMP      r1,#4
        0x60004bf6:    d00a        ..      BEQ      0x60004c0e ; __kernel_poly + 78
        0x60004bf8:    2906        .)      CMP      r1,#6
        0x60004bfa:    bf18        ..      IT       NE
        0x60004bfc:    4770        pG      BXNE     lr
        0x60004bfe:    ed902b0a    ...+    VLDR     d2,[r0,#0x28]
        0x60004c02:    ee002b01    ...+    VMLA.F64 d2,d0,d1
        0x60004c06:    ed900b08    ....    VLDR     d0,[r0,#0x20]
        0x60004c0a:    ee020b01    ....    VMLA.F64 d0,d2,d1
        0x60004c0e:    ed902b06    ...+    VLDR     d2,[r0,#0x18]
        0x60004c12:    ee002b01    ...+    VMLA.F64 d2,d0,d1
        0x60004c16:    ed900b04    ....    VLDR     d0,[r0,#0x10]
        0x60004c1a:    ee020b01    ....    VMLA.F64 d0,d2,d1
        0x60004c1e:    ed902b02    ...+    VLDR     d2,[r0,#8]
        0x60004c22:    ee002b01    ...+    VMLA.F64 d2,d0,d1
        0x60004c26:    ed900b00    ....    VLDR     d0,[r0,#0]
        0x60004c2a:    ee020b01    ....    VMLA.F64 d0,d2,d1
        0x60004c2e:    4770        pG      BX       lr
    i.__mathlib_dbl_divzero
    __mathlib_dbl_divzero
        0x60004c30:    ed9f1b03    ....    VLDR     d1,[pc,#12] ; [0x60004c40] = 0
        0x60004c34:    ed9f2b04    ...+    VLDR     d2,[pc,#16] ; [0x60004c48] = 0
        0x60004c38:    ee810b02    ....    VDIV.F64 d0,d1,d2
        0x60004c3c:    4770        pG      BX       lr
    $d
        0x60004c3e:    0000        ..      DCW    0
        0x60004c40:    00000000    ....    DCD    0
        0x60004c44:    3ff00000    ...?    DCD    1072693248
        0x60004c48:    00000000    ....    DCD    0
        0x60004c4c:    00000000    ....    DCD    0
    $t
    i.__mathlib_dbl_infnan2
    __mathlib_dbl_infnan2
        0x60004c50:    ee300b01    0...    VADD.F64 d0,d0,d1
        0x60004c54:    4770        pG      BX       lr
        0x60004c56:    0000        ..      MOVS     r0,r0
    i.__mathlib_dbl_invalid
    __mathlib_dbl_invalid
        0x60004c58:    ed9f1b03    ....    VLDR     d1,[pc,#12] ; [0x60004c68] = 0
        0x60004c5c:    ee810b01    ....    VDIV.F64 d0,d1,d1
        0x60004c60:    4770        pG      BX       lr
    $d
        0x60004c62:    0000        ..      DCW    0
        0x60004c64:    00000000    ....    DCD    0
        0x60004c68:    00000000    ....    DCD    0
        0x60004c6c:    00000000    ....    DCD    0
    $t
    i.__mathlib_dbl_overflow
    __mathlib_dbl_overflow
        0x60004c70:    ed9f0b03    ....    VLDR     d0,[pc,#12] ; [0x60004c80] = 0
        0x60004c74:    ee200b00     ...    VMUL.F64 d0,d0,d0
        0x60004c78:    4770        pG      BX       lr
    $d
        0x60004c7a:    0000        ..      DCW    0
        0x60004c7c:    00000000    ....    DCD    0
        0x60004c80:    00000000    ....    DCD    0
        0x60004c84:    70000000    ...p    DCD    1879048192
    $t
    i.__mathlib_dbl_underflow
    __mathlib_dbl_underflow
        0x60004c88:    ed9f0b03    ....    VLDR     d0,[pc,#12] ; [0x60004c98] = 0
        0x60004c8c:    ee200b00     ...    VMUL.F64 d0,d0,d0
        0x60004c90:    4770        pG      BX       lr
    $d
        0x60004c92:    0000        ..      DCW    0
        0x60004c94:    00000000    ....    DCD    0
        0x60004c98:    00000000    ....    DCD    0
        0x60004c9c:    10000000    ....    DCD    268435456
    $t
    i.__scatterload_copy
    __scatterload_copy
        0x60004ca0:    e002        ..      B        0x60004ca8 ; __scatterload_copy + 8
        0x60004ca2:    c808        ..      LDM      r0!,{r3}
        0x60004ca4:    1f12        ..      SUBS     r2,r2,#4
        0x60004ca6:    c108        ..      STM      r1!,{r3}
        0x60004ca8:    2a00        .*      CMP      r2,#0
        0x60004caa:    d1fa        ..      BNE      0x60004ca2 ; __scatterload_copy + 2
        0x60004cac:    4770        pG      BX       lr
    i.__scatterload_null
    __scatterload_null
        0x60004cae:    4770        pG      BX       lr
    i.__scatterload_zeroinit
    __scatterload_zeroinit
        0x60004cb0:    2000        .       MOVS     r0,#0
        0x60004cb2:    e001        ..      B        0x60004cb8 ; __scatterload_zeroinit + 8
        0x60004cb4:    c101        ..      STM      r1!,{r0}
        0x60004cb6:    1f12        ..      SUBS     r2,r2,#4
        0x60004cb8:    2a00        .*      CMP      r2,#0
        0x60004cba:    d1fb        ..      BNE      0x60004cb4 ; __scatterload_zeroinit + 4
        0x60004cbc:    4770        pG      BX       lr
        0x60004cbe:    0000        ..      MOVS     r0,r0
    i.__set_errno
    __set_errno
        0x60004cc0:    4901        .I      LDR      r1,[pc,#4] ; [0x60004cc8] = 0x2000002c
        0x60004cc2:    6008        .`      STR      r0,[r1,#0]
        0x60004cc4:    4770        pG      BX       lr
    $d
        0x60004cc6:    0000        ..      DCW    0
        0x60004cc8:    2000002c    ,..     DCD    536870956
    $t
    i.delay
    delay
        0x60004ccc:    2100        .!      MOVS     r1,#0
        0x60004cce:    b508        ..      PUSH     {r3,lr}
        0x60004cd0:    4281        .B      CMP      r1,r0
        0x60004cd2:    9100        ..      STR      r1,[sp,#0]
        0x60004cd4:    d202        ..      BCS      0x60004cdc ; delay + 16
        0x60004cd6:    bf00        ..      NOP      
        0x60004cd8:    1c49        I.      ADDS     r1,r1,#1
        0x60004cda:    e7f9        ..      B        0x60004cd0 ; delay + 4
        0x60004cdc:    bd08        ..      POP      {r3,pc}
    i.fabs
    fabs
        0x60004cde:    b082        ..      SUB      sp,sp,#8
        0x60004ce0:    e9cd0100    ....    STRD     r0,r1,[sp,#0]
        0x60004ce4:    f0214000    !..@    BIC      r0,r1,#0x80000000
        0x60004ce8:    9001        ..      STR      r0,[sp,#4]
        0x60004cea:    ed9d0b00    ....    VLDR     d0,[sp,#0]
        0x60004cee:    b002        ..      ADD      sp,sp,#8
        0x60004cf0:    ec510b10    Q...    VMOV     r0,r1,d0
        0x60004cf4:    4770        pG      BX       lr
        0x60004cf6:    0000        ..      MOVS     r0,r0
    i.main
    main
        0x60004cf8:    f7fdff30    ..0.    BL       BOARD_ConfigMPU ; 0x60002b5c
        0x60004cfc:    f7fef842    ..B.    BL       BOARD_InitPins ; 0x60002d84
        0x60004d00:    f7fdfdc0    ....    BL       BOARD_BootClockRUN ; 0x60002884
        0x60004d04:    f7fef830    ..0.    BL       BOARD_InitDebugConsole ; 0x60002d68
        0x60004d08:    a079        y.      ADR      r0,{pc}+0x1e8 ; 0x60004ef0
        0x60004d0a:    f7fefbfb    ....    BL       DbgConsole_Printf ; 0x60003504
        0x60004d0e:    a079        y.      ADR      r0,{pc}+0x1e6 ; 0x60004ef4
        0x60004d10:    f7fefbf8    ....    BL       DbgConsole_Printf ; 0x60003504
        0x60004d14:    2000        .       MOVS     r0,#0
        0x60004d16:    f7fef87f    ....    BL       CLOCK_GetFreq ; 0x60002e18
        0x60004d1a:    4601        .F      MOV      r1,r0
        0x60004d1c:    a080        ..      ADR      r0,{pc}+0x204 ; 0x60004f20
        0x60004d1e:    f7fefbf1    ....    BL       DbgConsole_Printf ; 0x60003504
        0x60004d22:    2001        .       MOVS     r0,#1
        0x60004d24:    f7fef878    ..x.    BL       CLOCK_GetFreq ; 0x60002e18
        0x60004d28:    4601        .F      MOV      r1,r0
        0x60004d2a:    a084        ..      ADR      r0,{pc}+0x212 ; 0x60004f3c
        0x60004d2c:    f7fefbea    ....    BL       DbgConsole_Printf ; 0x60003504
        0x60004d30:    2002        .       MOVS     r0,#2
        0x60004d32:    f7fef871    ..q.    BL       CLOCK_GetFreq ; 0x60002e18
        0x60004d36:    4601        .F      MOV      r1,r0
        0x60004d38:    a087        ..      ADR      r0,{pc}+0x220 ; 0x60004f58
        0x60004d3a:    f7fefbe3    ....    BL       DbgConsole_Printf ; 0x60003504
        0x60004d3e:    200d        .       MOVS     r0,#0xd
        0x60004d40:    f7fef86a    ..j.    BL       CLOCK_GetFreq ; 0x60002e18
        0x60004d44:    4601        .F      MOV      r1,r0
        0x60004d46:    a08b        ..      ADR      r0,{pc}+0x22e ; 0x60004f74
        0x60004d48:    f7fefbdc    ....    BL       DbgConsole_Printf ; 0x60003504
        0x60004d4c:    200e        .       MOVS     r0,#0xe
        0x60004d4e:    f7fef863    ..c.    BL       CLOCK_GetFreq ; 0x60002e18
        0x60004d52:    4601        .F      MOV      r1,r0
        0x60004d54:    a08e        ..      ADR      r0,{pc}+0x23c ; 0x60004f90
        0x60004d56:    f7fefbd5    ....    BL       DbgConsole_Printf ; 0x60003504
        0x60004d5a:    200f        .       MOVS     r0,#0xf
        0x60004d5c:    f7fef85c    ..\.    BL       CLOCK_GetFreq ; 0x60002e18
        0x60004d60:    4601        .F      MOV      r1,r0
        0x60004d62:    a092        ..      ADR      r0,{pc}+0x24a ; 0x60004fac
        0x60004d64:    f7fefbce    ....    BL       DbgConsole_Printf ; 0x60003504
        0x60004d68:    2010        .       MOVS     r0,#0x10
        0x60004d6a:    f7fef855    ..U.    BL       CLOCK_GetFreq ; 0x60002e18
        0x60004d6e:    4601        .F      MOV      r1,r0
        0x60004d70:    a095        ..      ADR      r0,{pc}+0x258 ; 0x60004fc8
        0x60004d72:    f7fefbc7    ....    BL       DbgConsole_Printf ; 0x60003504
        0x60004d76:    2011        .       MOVS     r0,#0x11
        0x60004d78:    f7fef84e    ..N.    BL       CLOCK_GetFreq ; 0x60002e18
        0x60004d7c:    4601        .F      MOV      r1,r0
        0x60004d7e:    a099        ..      ADR      r0,{pc}+0x266 ; 0x60004fe4
        0x60004d80:    f7fefbc0    ....    BL       DbgConsole_Printf ; 0x60003504
        0x60004d84:    a09e        ..      ADR      r0,{pc}+0x27c ; 0x60005000
        0x60004d86:    f7fefbbd    ....    BL       DbgConsole_Printf ; 0x60003504
        0x60004d8a:    49a5        .I      LDR      r1,[pc,#660] ; [0x60005020] = 0x20000018
        0x60004d8c:    a0a5        ..      ADR      r0,{pc}+0x298 ; 0x60005024
        0x60004d8e:    f7fefbb9    ....    BL       DbgConsole_Printf ; 0x60003504
        0x60004d92:    f7fefccd    ....    BL       LED_GPIO_Config ; 0x60003730
        0x60004d96:    4aa8        .J      LDR      r2,[pc,#672] ; [0x60005038] = 0x401b8000
        0x60004d98:    4ca8        .L      LDR      r4,[pc,#672] ; [0x6000503c] = 0x42c1d80
        0x60004d9a:    6810        .h      LDR      r0,[r2,#0]
        0x60004d9c:    f4207000     ..p    BIC      r0,r0,#0x200
        0x60004da0:    6010        .`      STR      r0,[r2,#0]
        0x60004da2:    4620         F      MOV      r0,r4
        0x60004da4:    f7ffff92    ....    BL       delay ; 0x60004ccc
        0x60004da8:    6810        .h      LDR      r0,[r2,#0]
        0x60004daa:    f0207080     ..p    BIC      r0,r0,#0x1000000
        0x60004dae:    6010        .`      STR      r0,[r2,#0]
        0x60004db0:    4620         F      MOV      r0,r4
        0x60004db2:    f7ffff8b    ....    BL       delay ; 0x60004ccc
        0x60004db6:    6810        .h      LDR      r0,[r2,#0]
        0x60004db8:    f0407080    @..p    ORR      r0,r0,#0x1000000
        0x60004dbc:    6010        .`      STR      r0,[r2,#0]
        0x60004dbe:    4620         F      MOV      r0,r4
        0x60004dc0:    f7ffff84    ....    BL       delay ; 0x60004ccc
        0x60004dc4:    6810        .h      LDR      r0,[r2,#0]
        0x60004dc6:    f0207000     ..p    BIC      r0,r0,#0x2000000
        0x60004dca:    6010        .`      STR      r0,[r2,#0]
        0x60004dcc:    4620         F      MOV      r0,r4
        0x60004dce:    f7ffff7d    ..}.    BL       delay ; 0x60004ccc
        0x60004dd2:    6810        .h      LDR      r0,[r2,#0]
        0x60004dd4:    f0407000    @..p    ORR      r0,r0,#0x2000000
        0x60004dd8:    6010        .`      STR      r0,[r2,#0]
        0x60004dda:    4620         F      MOV      r0,r4
        0x60004ddc:    f7ffff76    ..v.    BL       delay ; 0x60004ccc
        0x60004de0:    6810        .h      LDR      r0,[r2,#0]
        0x60004de2:    f4206080     ..`    BIC      r0,r0,#0x400
        0x60004de6:    6010        .`      STR      r0,[r2,#0]
        0x60004de8:    4620         F      MOV      r0,r4
        0x60004dea:    f7ffff6f    ..o.    BL       delay ; 0x60004ccc
        0x60004dee:    6810        .h      LDR      r0,[r2,#0]
        0x60004df0:    f4406080    @..`    ORR      r0,r0,#0x400
        0x60004df4:    6010        .`      STR      r0,[r2,#0]
        0x60004df6:    4620         F      MOV      r0,r4
        0x60004df8:    f7ffff68    ..h.    BL       delay ; 0x60004ccc
        0x60004dfc:    6810        .h      LDR      r0,[r2,#0]
        0x60004dfe:    f0207080     ..p    BIC      r0,r0,#0x1000000
        0x60004e02:    6010        .`      STR      r0,[r2,#0]
        0x60004e04:    6810        .h      LDR      r0,[r2,#0]
        0x60004e06:    f0407000    @..p    ORR      r0,r0,#0x2000000
        0x60004e0a:    6010        .`      STR      r0,[r2,#0]
        0x60004e0c:    6810        .h      LDR      r0,[r2,#0]
        0x60004e0e:    f4406080    @..`    ORR      r0,r0,#0x400
        0x60004e12:    6010        .`      STR      r0,[r2,#0]
        0x60004e14:    4620         F      MOV      r0,r4
        0x60004e16:    f7ffff59    ..Y.    BL       delay ; 0x60004ccc
        0x60004e1a:    6810        .h      LDR      r0,[r2,#0]
        0x60004e1c:    f0407080    @..p    ORR      r0,r0,#0x1000000
        0x60004e20:    6010        .`      STR      r0,[r2,#0]
        0x60004e22:    6810        .h      LDR      r0,[r2,#0]
        0x60004e24:    f0207000     ..p    BIC      r0,r0,#0x2000000
        0x60004e28:    6010        .`      STR      r0,[r2,#0]
        0x60004e2a:    6810        .h      LDR      r0,[r2,#0]
        0x60004e2c:    f4406080    @..`    ORR      r0,r0,#0x400
        0x60004e30:    6010        .`      STR      r0,[r2,#0]
        0x60004e32:    4620         F      MOV      r0,r4
        0x60004e34:    f7ffff4a    ..J.    BL       delay ; 0x60004ccc
        0x60004e38:    6810        .h      LDR      r0,[r2,#0]
        0x60004e3a:    f0407080    @..p    ORR      r0,r0,#0x1000000
        0x60004e3e:    6010        .`      STR      r0,[r2,#0]
        0x60004e40:    6810        .h      LDR      r0,[r2,#0]
        0x60004e42:    f0407000    @..p    ORR      r0,r0,#0x2000000
        0x60004e46:    6010        .`      STR      r0,[r2,#0]
        0x60004e48:    6810        .h      LDR      r0,[r2,#0]
        0x60004e4a:    f4206080     ..`    BIC      r0,r0,#0x400
        0x60004e4e:    6010        .`      STR      r0,[r2,#0]
        0x60004e50:    4620         F      MOV      r0,r4
        0x60004e52:    f7ffff3b    ..;.    BL       delay ; 0x60004ccc
        0x60004e56:    6810        .h      LDR      r0,[r2,#0]
        0x60004e58:    f0207080     ..p    BIC      r0,r0,#0x1000000
        0x60004e5c:    6010        .`      STR      r0,[r2,#0]
        0x60004e5e:    6810        .h      LDR      r0,[r2,#0]
        0x60004e60:    f0207000     ..p    BIC      r0,r0,#0x2000000
        0x60004e64:    6010        .`      STR      r0,[r2,#0]
        0x60004e66:    6810        .h      LDR      r0,[r2,#0]
        0x60004e68:    f4406080    @..`    ORR      r0,r0,#0x400
        0x60004e6c:    6010        .`      STR      r0,[r2,#0]
        0x60004e6e:    4620         F      MOV      r0,r4
        0x60004e70:    f7ffff2c    ..,.    BL       delay ; 0x60004ccc
        0x60004e74:    6810        .h      LDR      r0,[r2,#0]
        0x60004e76:    f0207080     ..p    BIC      r0,r0,#0x1000000
        0x60004e7a:    6010        .`      STR      r0,[r2,#0]
        0x60004e7c:    6810        .h      LDR      r0,[r2,#0]
        0x60004e7e:    f0407000    @..p    ORR      r0,r0,#0x2000000
        0x60004e82:    6010        .`      STR      r0,[r2,#0]
        0x60004e84:    6810        .h      LDR      r0,[r2,#0]
        0x60004e86:    f4206080     ..`    BIC      r0,r0,#0x400
        0x60004e8a:    6010        .`      STR      r0,[r2,#0]
        0x60004e8c:    4620         F      MOV      r0,r4
        0x60004e8e:    f7ffff1d    ....    BL       delay ; 0x60004ccc
        0x60004e92:    6810        .h      LDR      r0,[r2,#0]
        0x60004e94:    f0407080    @..p    ORR      r0,r0,#0x1000000
        0x60004e98:    6010        .`      STR      r0,[r2,#0]
        0x60004e9a:    6810        .h      LDR      r0,[r2,#0]
        0x60004e9c:    f0207000     ..p    BIC      r0,r0,#0x2000000
        0x60004ea0:    6010        .`      STR      r0,[r2,#0]
        0x60004ea2:    6810        .h      LDR      r0,[r2,#0]
        0x60004ea4:    f4206080     ..`    BIC      r0,r0,#0x400
        0x60004ea8:    6010        .`      STR      r0,[r2,#0]
        0x60004eaa:    4620         F      MOV      r0,r4
        0x60004eac:    f7ffff0e    ....    BL       delay ; 0x60004ccc
        0x60004eb0:    6810        .h      LDR      r0,[r2,#0]
        0x60004eb2:    f0207080     ..p    BIC      r0,r0,#0x1000000
        0x60004eb6:    6010        .`      STR      r0,[r2,#0]
        0x60004eb8:    6810        .h      LDR      r0,[r2,#0]
        0x60004eba:    f0207000     ..p    BIC      r0,r0,#0x2000000
        0x60004ebe:    6010        .`      STR      r0,[r2,#0]
        0x60004ec0:    6810        .h      LDR      r0,[r2,#0]
        0x60004ec2:    f4206080     ..`    BIC      r0,r0,#0x400
        0x60004ec6:    6010        .`      STR      r0,[r2,#0]
        0x60004ec8:    4620         F      MOV      r0,r4
        0x60004eca:    f7fffeff    ....    BL       delay ; 0x60004ccc
        0x60004ece:    6810        .h      LDR      r0,[r2,#0]
        0x60004ed0:    f0407080    @..p    ORR      r0,r0,#0x1000000
        0x60004ed4:    6010        .`      STR      r0,[r2,#0]
        0x60004ed6:    6810        .h      LDR      r0,[r2,#0]
        0x60004ed8:    f0407000    @..p    ORR      r0,r0,#0x2000000
        0x60004edc:    6010        .`      STR      r0,[r2,#0]
        0x60004ede:    6810        .h      LDR      r0,[r2,#0]
        0x60004ee0:    f4406080    @..`    ORR      r0,r0,#0x400
        0x60004ee4:    6010        .`      STR      r0,[r2,#0]
        0x60004ee6:    4620         F      MOV      r0,r4
        0x60004ee8:    f7fffef0    ....    BL       delay ; 0x60004ccc
        0x60004eec:    e755        U.      B        0x60004d9a ; main + 162
    $d
        0x60004eee:    0000        ..      DCW    0
        0x60004ef0:    00000a0d    ....    DCD    2573
        0x60004ef4:    2a2a2a2a    ****    DCD    707406378
        0x60004ef8:    d3b6bb2a    *...    DCD    3551968042
        0x60004efc:    d3b9caad    ....    DCD    3552168621
        0x60004f00:    b0d220c3    . ..    DCD    2966560963
        0x60004f04:    2e69f0bb    ..i.    DCD    778694843
        0x60004f08:    5220584d    MX R    DCD    1377851469
        0x60004f0c:    35303154    T105    DCD    892350804
        0x60004f10:    aabf2032    2 ..    DCD    2864652338
        0x60004f14:    e5b0a2b7    ....    DCD    3853558455
        0x60004f18:    2a2a2a2a    ****    DCD    707406378
        0x60004f1c:    000a0d2a    *...    DCD    658730
        0x60004f20:    3a555043    CPU:    DCD    978669635
        0x60004f24:    20202020            DCD    538976288
        0x60004f28:    20202020            DCD    538976288
        0x60004f2c:    20202020            DCD    538976288
        0x60004f30:    20642520     %d     DCD    543434016
        0x60004f34:    0a0d7a48    Hz..    DCD    168655432
        0x60004f38:    00000000    ....    DCD    0
        0x60004f3c:    3a424841    AHB:    DCD    977422401
        0x60004f40:    20202020            DCD    538976288
        0x60004f44:    20202020            DCD    538976288
        0x60004f48:    20202020            DCD    538976288
        0x60004f4c:    20642520     %d     DCD    543434016
        0x60004f50:    0a0d7a48    Hz..    DCD    168655432
        0x60004f54:    00000000    ....    DCD    0
        0x60004f58:    434d4553    SEMC    DCD    1129137491
        0x60004f5c:    2020203a    :       DCD    538976314
        0x60004f60:    20202020            DCD    538976288
        0x60004f64:    20202020            DCD    538976288
        0x60004f68:    20642520     %d     DCD    543434016
        0x60004f6c:    0a0d7a48    Hz..    DCD    168655432
        0x60004f70:    00000000    ....    DCD    0
        0x60004f74:    50535953    SYSP    DCD    1347639635
        0x60004f78:    203a4c4c    LL:     DCD    540691532
        0x60004f7c:    20202020            DCD    538976288
        0x60004f80:    20202020            DCD    538976288
        0x60004f84:    20642520     %d     DCD    543434016
        0x60004f88:    0a0d7a48    Hz..    DCD    168655432
        0x60004f8c:    00000000    ....    DCD    0
        0x60004f90:    50535953    SYSP    DCD    1347639635
        0x60004f94:    46504c4c    LLPF    DCD    1179667532
        0x60004f98:    203a3044    D0:     DCD    540684356
        0x60004f9c:    20202020            DCD    538976288
        0x60004fa0:    20642520     %d     DCD    543434016
        0x60004fa4:    0a0d7a48    Hz..    DCD    168655432
        0x60004fa8:    00000000    ....    DCD    0
        0x60004fac:    50535953    SYSP    DCD    1347639635
        0x60004fb0:    46504c4c    LLPF    DCD    1179667532
        0x60004fb4:    203a3144    D1:     DCD    540684612
        0x60004fb8:    20202020            DCD    538976288
        0x60004fbc:    20642520     %d     DCD    543434016
        0x60004fc0:    0a0d7a48    Hz..    DCD    168655432
        0x60004fc4:    00000000    ....    DCD    0
        0x60004fc8:    50535953    SYSP    DCD    1347639635
        0x60004fcc:    46504c4c    LLPF    DCD    1179667532
        0x60004fd0:    203a3244    D2:     DCD    540684868
        0x60004fd4:    20202020            DCD    538976288
        0x60004fd8:    20642520     %d     DCD    543434016
        0x60004fdc:    0a0d7a48    Hz..    DCD    168655432
        0x60004fe0:    00000000    ....    DCD    0
        0x60004fe4:    50535953    SYSP    DCD    1347639635
        0x60004fe8:    46504c4c    LLPF    DCD    1179667532
        0x60004fec:    203a3344    D3:     DCD    540685124
        0x60004ff0:    20202020            DCD    538976288
        0x60004ff4:    20642520     %d     DCD    543434016
        0x60004ff8:    0a0d7a48    Hz..    DCD    168655432
        0x60004ffc:    00000000    ....    DCD    0
        0x60005000:    4f495047    GPIO    DCD    1330204743
        0x60005004:    f6b3e4ca    ....    DCD    4138984650
        0x60005008:    d3b9ca2d    -...    DCD    3552168493
        0x6000500c:    bcccb9c3    ....    DCD    3167533507
        0x60005010:    b5e2bffe    ....    DCD    3051536382
        0x60005014:    4cc1c1e3    ...L    DCD    1287766499
        0x60005018:    0a0d4445    ED..    DCD    168641605
        0x6000501c:    00000000    ....    DCD    0
        0x60005020:    20000018    ...     DCD    536870936
        0x60005024:    5f726f66    for_    DCD    1601335142
        0x60005028:    74786574    text    DCD    1954047348
        0x6000502c:    20736920     is     DCD    544434464
        0x60005030:    0d73253a    :%s.    DCD    225649978
        0x60005034:    0000000a    ....    DCD    10
        0x60005038:    401b8000    ...@    DCD    1075544064
        0x6000503c:    042c1d80    ..,.    DCD    70000000
    $t
    i.sqrt
    sqrt
        0x60005040:    b500        ..      PUSH     {lr}
        0x60005042:    ec410b10    A...    VMOV     d0,r0,r1
        0x60005046:    ed2d8b02    -...    VPUSH    {d8}
        0x6000504a:    b083        ..      SUB      sp,sp,#0xc
        0x6000504c:    eeb18bc0    ....    VSQRT.F64 d8,d0
        0x60005050:    ee180a10    ....    VMOV     r0,s16
        0x60005054:    ee181a90    ....    VMOV     r1,s17
        0x60005058:    ed8d8b00    ....    VSTR     d8,[sp,#0]
        0x6000505c:    2800        .(      CMP      r0,#0
        0x6000505e:    bf18        ..      IT       NE
        0x60005060:    2001        .       MOVNE    r0,#1
        0x60005062:    4308        .C      ORRS     r0,r0,r1
        0x60005064:    f0204000     ..@    BIC      r0,r0,#0x80000000
        0x60005068:    f1c0607f    ...`    RSB      r0,r0,#0xff00000
        0x6000506c:    f10040e0    ...@    ADD      r0,r0,#0x70000000
        0x60005070:    0fc0        ..      LSRS     r0,r0,#31
        0x60005072:    d014        ..      BEQ      0x6000509e ; sqrt + 94
        0x60005074:    ee101a10    ....    VMOV     r1,s0
        0x60005078:    ee100a90    ....    VMOV     r0,s1
        0x6000507c:    ed8d0b00    ....    VSTR     d0,[sp,#0]
        0x60005080:    2900        .)      CMP      r1,#0
        0x60005082:    bf18        ..      IT       NE
        0x60005084:    2101        .!      MOVNE    r1,#1
        0x60005086:    4308        .C      ORRS     r0,r0,r1
        0x60005088:    f0204000     ..@    BIC      r0,r0,#0x80000000
        0x6000508c:    f1c0607f    ...`    RSB      r0,r0,#0xff00000
        0x60005090:    f10040e0    ...@    ADD      r0,r0,#0x70000000
        0x60005094:    0fc0        ..      LSRS     r0,r0,#31
        0x60005096:    bf04        ..      ITT      EQ
        0x60005098:    2001        .       MOVEQ    r0,#1
        0x6000509a:    f7fffe11    ....    BLEQ     __set_errno ; 0x60004cc0
        0x6000509e:    ec510b18    Q...    VMOV     r0,r1,d8
        0x600050a2:    b003        ..      ADD      sp,sp,#0xc
        0x600050a4:    ecbd8b02    ....    VPOP     {d8}
        0x600050a8:    bd00        ..      POP      {pc}
        0x600050aa:    0000        ..      MOVS     r0,r0
    $d.realdata
    .constdata
        0x600050ac:    017d7840    @x}.    DCD    25000000
        0x600050b0:    02faf080    ....    DCD    50000000
        0x600050b4:    05f5e100    ....    DCD    100000000
        0x600050b8:    07735940    @Ys.    DCD    125000000
    .constdata
    s_gpioBases
        0x600050bc:    00000000    ....    DCD    0
        0x600050c0:    401b8000    ...@    DCD    1075544064
        0x600050c4:    401bc000    ...@    DCD    1075560448
        0x600050c8:    401c0000    ...@    DCD    1075576832
        0x600050cc:    401c4000    .@.@    DCD    1075593216
        0x600050d0:    400c0000    ...@    DCD    1074528256
    s_gpioClock
        0x600050d4:    011affff    ....    DCD    18546687
        0x600050d8:    021a001e    ....    DCD    35258398
        0x600050dc:    011e030c    ....    DCD    18744076
    .constdata
    s_lpuartBases
        0x600050e0:    00000000    ....    DCD    0
        0x600050e4:    40184000    .@.@    DCD    1075331072
        0x600050e8:    40188000    ...@    DCD    1075347456
        0x600050ec:    4018c000    ...@    DCD    1075363840
        0x600050f0:    40190000    ...@    DCD    1075380224
        0x600050f4:    40194000    .@.@    DCD    1075396608
        0x600050f8:    40198000    ...@    DCD    1075412992
        0x600050fc:    4019c000    ...@    DCD    1075429376
        0x60005100:    401a0000    ...@    DCD    1075445760
    s_lpuartIRQ
        0x60005104:    0014ff80    ....    DCD    1376128
        0x60005108:    00160015    ....    DCD    1441813
        0x6000510c:    00180017    ....    DCD    1572887
        0x60005110:    001a0019    ....    DCD    1703961
        0x60005114:    001b        ..      DCW    27
    s_lpuartClock
        0x60005116:    ffff        ..      DCW    65535
        0x60005118:    001c0518    ....    DCD    1836312
        0x6000511c:    0118000c    ....    DCD    18350092
        0x60005120:    03060302    ....    DCD    50725634
        0x60005124:    060e051a    ....    DCD    101582106
    .constdata
    armPllConfig_BOARD_BootClockRUN
        0x60005128:    00000058    X...    DCD    88
    sysPllConfig_BOARD_BootClockRUN
        0x6000512c:    00000001    ....    DCD    1
        0x60005130:    00000000    ....    DCD    0
        0x60005134:    00000001    ....    DCD    1
    .constdata
    bp
        0x60005138:    00000000    ....    DCD    0
        0x6000513c:    3ff00000    ...?    DCD    1072693248
        0x60005140:    00000000    ....    DCD    0
        0x60005144:    3ff80000    ...?    DCD    1073217536
    dp_h
        0x60005148:    00000000    ....    DCD    0
        0x6000514c:    00000000    ....    DCD    0
        0x60005150:    40000000    ...@    DCD    1073741824
        0x60005154:    3fe2b803    ...?    DCD    1071822851
    dp_l
        0x60005158:    00000000    ....    DCD    0
        0x6000515c:    00000000    ....    DCD    0
        0x60005160:    43cfd006    ...C    DCD    1137692678
        0x60005164:    3e4cfdeb    ..L>    DCD    1045233131
    L
        0x60005168:    33333303    .333    DCD    858993411
        0x6000516c:    3fe33333    33.?    DCD    1071854387
        0x60005170:    db6fabff    ..o.    DCD    3681528831
        0x60005174:    3fdb6db6    .m.?    DCD    1071345078
        0x60005178:    518f264d    M&.Q    DCD    1368335949
        0x6000517c:    3fd55555    UU.?    DCD    1070945621
        0x60005180:    a91d4101    .A..    DCD    2837266689
        0x60005184:    3fd17460    `t.?    DCD    1070691424
        0x60005188:    93c9db65    e...    DCD    2479479653
        0x6000518c:    3fcd864a    J..?    DCD    1070433866
        0x60005190:    4a454eef    .NEJ    DCD    1246056175
        0x60005194:    3fca7e28    (~.?    DCD    1070235176
    P
        0x60005198:    5555553e    >UUU    DCD    1431655742
        0x6000519c:    3fc55555    UU.?    DCD    1069897045
        0x600051a0:    16bebd93    ....    DCD    381599123
        0x600051a4:    bf66c16c    l.f.    DCD    3211182444
        0x600051a8:    af25de2c    ,.%.    DCD    2938494508
        0x600051ac:    3f11566a    jV.?    DCD    1058100842
        0x600051b0:    c5d26bf1    .k..    DCD    3318901745
        0x600051b4:    bebbbd41    A...    DCD    3199974721
        0x600051b8:    72bea4d0    ...r    DCD    1925096656
        0x600051bc:    3e663769    i7f>    DCD    1046886249
    .constdata
    __mathlib_zero
        0x600051c0:    00000000    ....    DCD    0
        0x600051c4:    00000000    ....    DCD    0
    Region$$Table$$Base
        0x600051c8:    600051e8    .Q.`    DCD    1610633704
        0x600051cc:    20000000    ...     DCD    536870912
        0x600051d0:    00000030    0...    DCD    48
        0x600051d4:    60004ca0    .L.`    DCD    1610632352
        0x600051d8:    60005218    .R.`    DCD    1610633752
        0x600051dc:    20000030    0..     DCD    536870960
        0x600051e0:    00000024    $...    DCD    36
        0x600051e4:    60004cb0    .L.`    DCD    1610632368
    Region$$Table$$Limit

** Section #5 'RW_m_data' (SHT_PROGBITS) [SHF_ALLOC + SHF_WRITE]
    Size   : 48 bytes (alignment 4)
    Address: 0x20000000


** Section #6 'RW_m_data' (SHT_NOBITS) [SHF_ALLOC + SHF_WRITE]
    Size   : 36 bytes (alignment 4)
    Address: 0x20000030


** Section #7 'ARM_LIB_HEAP' (SHT_NOBITS) [SHF_ALLOC + SHF_WRITE]
    Size   : 1024 bytes (alignment 4)
    Address: 0x20000054


** Section #8 'ARM_LIB_STACK' (SHT_NOBITS) [SHF_ALLOC + SHF_WRITE]
    Size   : 1024 bytes (alignment 4)
    Address: 0x2001fc00


** Section #9 '.debug_abbrev' (SHT_PROGBITS)
    Size   : 1476 bytes


** Section #10 '.debug_frame' (SHT_PROGBITS)
    Size   : 4316 bytes


** Section #11 '.debug_info' (SHT_PROGBITS)
    Size   : 224940 bytes


** Section #12 '.debug_line' (SHT_PROGBITS)
    Size   : 16880 bytes


** Section #13 '.debug_loc' (SHT_PROGBITS)
    Size   : 6748 bytes


** Section #14 '.debug_macinfo' (SHT_PROGBITS)
    Size   : 2723016 bytes


** Section #15 '.debug_pubnames' (SHT_PROGBITS)
    Size   : 2588 bytes


** Section #16 '.symtab' (SHT_SYMTAB)
    Size   : 10592 bytes (alignment 4)
    String table #17 '.strtab'
    Last local symbol no. 340


** Section #17 '.strtab' (SHT_STRTAB)
    Size   : 10776 bytes


** Section #18 '.note' (SHT_NOTE)
    Size   : 48 bytes (alignment 4)


** Section #19 '.comment' (SHT_PROGBITS)
    Size   : 32724 bytes


** Section #20 '.shstrtab' (SHT_STRTAB)
    Size   : 224 bytes


